
VFD_Clock_2004.elf:     file format elf32-avr

Sections:
Idx Name          Size      VMA       LMA       File off  Algn
  0 .text         00001176  00000000  00000000  00000094  2**1
                  CONTENTS, ALLOC, LOAD, READONLY, CODE
  1 .data         000000ce  00800060  00001176  0000120a  2**0
                  CONTENTS, ALLOC, LOAD, DATA
  2 .bss          0000010f  0080012e  0080012e  000012d8  2**0
                  ALLOC
  3 .comment      0000005c  00000000  00000000  000012d8  2**0
                  CONTENTS, READONLY
  4 .note.gnu.avr.deviceinfo 0000003c  00000000  00000000  00001334  2**2
                  CONTENTS, READONLY
  5 .debug_aranges 00000228  00000000  00000000  00001370  2**0
                  CONTENTS, READONLY, DEBUGGING
  6 .debug_info   00001f1f  00000000  00000000  00001598  2**0
                  CONTENTS, READONLY, DEBUGGING
  7 .debug_abbrev 00000e1b  00000000  00000000  000034b7  2**0
                  CONTENTS, READONLY, DEBUGGING
  8 .debug_line   0000133a  00000000  00000000  000042d2  2**0
                  CONTENTS, READONLY, DEBUGGING
  9 .debug_frame  00000550  00000000  00000000  0000560c  2**2
                  CONTENTS, READONLY, DEBUGGING
 10 .debug_str    0000087d  00000000  00000000  00005b5c  2**0
                  CONTENTS, READONLY, DEBUGGING
 11 .debug_loc    000014f2  00000000  00000000  000063d9  2**0
                  CONTENTS, READONLY, DEBUGGING
 12 .debug_ranges 000001e8  00000000  00000000  000078cb  2**0
                  CONTENTS, READONLY, DEBUGGING

Disassembly of section .text:

00000000 <__vectors>:
       0:	12 c0       	rjmp	.+36     	; 0x26 <__ctors_end>
       2:	2c c0       	rjmp	.+88     	; 0x5c <__bad_interrupt>
       4:	2b c0       	rjmp	.+86     	; 0x5c <__bad_interrupt>
       6:	2a c0       	rjmp	.+84     	; 0x5c <__bad_interrupt>
       8:	29 c0       	rjmp	.+82     	; 0x5c <__bad_interrupt>
       a:	28 c0       	rjmp	.+80     	; 0x5c <__bad_interrupt>
       c:	27 c0       	rjmp	.+78     	; 0x5c <__bad_interrupt>
       e:	50 c1       	rjmp	.+672    	; 0x2b0 <__vector_7>
      10:	45 c1       	rjmp	.+650    	; 0x29c <__vector_8>
      12:	24 c0       	rjmp	.+72     	; 0x5c <__bad_interrupt>
      14:	23 c0       	rjmp	.+70     	; 0x5c <__bad_interrupt>
      16:	c4 c2       	rjmp	.+1416   	; 0x5a0 <__vector_11>
      18:	21 c0       	rjmp	.+66     	; 0x5c <__bad_interrupt>
      1a:	f8 c2       	rjmp	.+1520   	; 0x60c <__vector_13>
      1c:	1f c0       	rjmp	.+62     	; 0x5c <__bad_interrupt>
      1e:	1e c0       	rjmp	.+60     	; 0x5c <__bad_interrupt>
      20:	1d c0       	rjmp	.+58     	; 0x5c <__bad_interrupt>
      22:	e6 c1       	rjmp	.+972    	; 0x3f0 <__vector_17>
      24:	1b c0       	rjmp	.+54     	; 0x5c <__bad_interrupt>

00000026 <__ctors_end>:
      26:	11 24       	eor	r1, r1
      28:	1f be       	out	0x3f, r1	; 63
      2a:	cf e5       	ldi	r28, 0x5F	; 95
      2c:	d4 e0       	ldi	r29, 0x04	; 4
      2e:	de bf       	out	0x3e, r29	; 62
      30:	cd bf       	out	0x3d, r28	; 61

00000032 <__do_copy_data>:
      32:	11 e0       	ldi	r17, 0x01	; 1
      34:	a0 e6       	ldi	r26, 0x60	; 96
      36:	b0 e0       	ldi	r27, 0x00	; 0
      38:	e6 e7       	ldi	r30, 0x76	; 118
      3a:	f1 e1       	ldi	r31, 0x11	; 17
      3c:	02 c0       	rjmp	.+4      	; 0x42 <__SREG__+0x3>
      3e:	05 90       	lpm	r0, Z+
      40:	0d 92       	st	X+, r0
      42:	ae 32       	cpi	r26, 0x2E	; 46
      44:	b1 07       	cpc	r27, r17
      46:	d9 f7       	brne	.-10     	; 0x3e <__SP_H__>

00000048 <__do_clear_bss>:
      48:	22 e0       	ldi	r18, 0x02	; 2
      4a:	ae e2       	ldi	r26, 0x2E	; 46
      4c:	b1 e0       	ldi	r27, 0x01	; 1
      4e:	01 c0       	rjmp	.+2      	; 0x52 <.do_clear_bss_start>

00000050 <.do_clear_bss_loop>:
      50:	1d 92       	st	X+, r1

00000052 <.do_clear_bss_start>:
      52:	ad 33       	cpi	r26, 0x3D	; 61
      54:	b2 07       	cpc	r27, r18
      56:	e1 f7       	brne	.-8      	; 0x50 <.do_clear_bss_loop>
      58:	34 d4       	rcall	.+2152   	; 0x8c2 <main>
      5a:	8b c8       	rjmp	.-3818   	; 0xfffff172 <__eeprom_end+0xff7ef172>

0000005c <__bad_interrupt>:
      5c:	d1 cf       	rjmp	.-94     	; 0x0 <__vectors>

0000005e <set_pin_level>:
*/


void set_pin_level(gpio *GPIOx , const bool level)
{
	if (level) {
      5e:	66 23       	and	r22, r22
      60:	99 f0       	breq	.+38     	; 0x88 <set_pin_level+0x2a>
		*GPIOx->port |= 1 << GPIOx->pin;
      62:	dc 01       	movw	r26, r24
      64:	ed 91       	ld	r30, X+
      66:	fc 91       	ld	r31, X
      68:	11 97       	sbiw	r26, 0x01	; 1
      6a:	21 e0       	ldi	r18, 0x01	; 1
      6c:	30 e0       	ldi	r19, 0x00	; 0
      6e:	a9 01       	movw	r20, r18
      70:	12 96       	adiw	r26, 0x02	; 2
      72:	0c 90       	ld	r0, X
      74:	02 c0       	rjmp	.+4      	; 0x7a <set_pin_level+0x1c>
      76:	44 0f       	add	r20, r20
      78:	55 1f       	adc	r21, r21
      7a:	0a 94       	dec	r0
      7c:	e2 f7       	brpl	.-8      	; 0x76 <set_pin_level+0x18>
      7e:	ca 01       	movw	r24, r20
      80:	90 81       	ld	r25, Z
      82:	89 2b       	or	r24, r25
      84:	80 83       	st	Z, r24
      86:	08 95       	ret
		} else {
		*GPIOx->port &= ~(1 << GPIOx->pin);
      88:	dc 01       	movw	r26, r24
      8a:	ed 91       	ld	r30, X+
      8c:	fc 91       	ld	r31, X
      8e:	11 97       	sbiw	r26, 0x01	; 1
      90:	21 e0       	ldi	r18, 0x01	; 1
      92:	30 e0       	ldi	r19, 0x00	; 0
      94:	a9 01       	movw	r20, r18
      96:	12 96       	adiw	r26, 0x02	; 2
      98:	0c 90       	ld	r0, X
      9a:	02 c0       	rjmp	.+4      	; 0xa0 <set_pin_level+0x42>
      9c:	44 0f       	add	r20, r20
      9e:	55 1f       	adc	r21, r21
      a0:	0a 94       	dec	r0
      a2:	e2 f7       	brpl	.-8      	; 0x9c <set_pin_level+0x3e>
      a4:	ca 01       	movw	r24, r20
      a6:	80 95       	com	r24
      a8:	90 81       	ld	r25, Z
      aa:	89 23       	and	r24, r25
      ac:	80 83       	st	Z, r24
      ae:	08 95       	ret

000000b0 <set_pin_dir>:
	}
}

void set_pin_dir(gpio *GPIOx, const enum port_dir direction)
{
      b0:	fc 01       	movw	r30, r24
	uint8_t *tmp_port = GPIOx->port-1;
      b2:	30 81       	ld	r19, Z
      b4:	21 81       	ldd	r18, Z+1	; 0x01
	switch (direction) {
      b6:	61 30       	cpi	r22, 0x01	; 1
      b8:	99 f0       	breq	.+38     	; 0xe0 <set_pin_dir+0x30>
      ba:	18 f0       	brcs	.+6      	; 0xc2 <set_pin_dir+0x12>
      bc:	62 30       	cpi	r22, 0x02	; 2
      be:	f1 f0       	breq	.+60     	; 0xfc <set_pin_dir+0x4c>
      c0:	08 95       	ret
		case PORT_DIR_IN:
		*tmp_port &= ~(1 << GPIOx->pin);
      c2:	81 e0       	ldi	r24, 0x01	; 1
      c4:	90 e0       	ldi	r25, 0x00	; 0
      c6:	02 80       	ldd	r0, Z+2	; 0x02
      c8:	02 c0       	rjmp	.+4      	; 0xce <set_pin_dir+0x1e>
      ca:	88 0f       	add	r24, r24
      cc:	99 1f       	adc	r25, r25
      ce:	0a 94       	dec	r0
      d0:	e2 f7       	brpl	.-8      	; 0xca <set_pin_dir+0x1a>
      d2:	e3 2f       	mov	r30, r19
      d4:	f2 2f       	mov	r31, r18
      d6:	80 95       	com	r24
      d8:	92 91       	ld	r25, -Z
      da:	89 23       	and	r24, r25
      dc:	80 83       	st	Z, r24
		break;
      de:	08 95       	ret
		case PORT_DIR_OUT:
		*tmp_port |= 1 << GPIOx->pin;
      e0:	81 e0       	ldi	r24, 0x01	; 1
      e2:	90 e0       	ldi	r25, 0x00	; 0
      e4:	02 80       	ldd	r0, Z+2	; 0x02
      e6:	02 c0       	rjmp	.+4      	; 0xec <set_pin_dir+0x3c>
      e8:	88 0f       	add	r24, r24
      ea:	99 1f       	adc	r25, r25
      ec:	0a 94       	dec	r0
      ee:	e2 f7       	brpl	.-8      	; 0xe8 <set_pin_dir+0x38>
      f0:	e3 2f       	mov	r30, r19
      f2:	f2 2f       	mov	r31, r18
      f4:	92 91       	ld	r25, -Z
      f6:	89 2b       	or	r24, r25
      f8:	80 83       	st	Z, r24
		break;
      fa:	08 95       	ret
		case PORT_DIR_OFF:
		*tmp_port &= ~(1 << GPIOx->pin);
      fc:	81 e0       	ldi	r24, 0x01	; 1
      fe:	90 e0       	ldi	r25, 0x00	; 0
     100:	ac 01       	movw	r20, r24
     102:	02 80       	ldd	r0, Z+2	; 0x02
     104:	02 c0       	rjmp	.+4      	; 0x10a <set_pin_dir+0x5a>
     106:	44 0f       	add	r20, r20
     108:	55 1f       	adc	r21, r21
     10a:	0a 94       	dec	r0
     10c:	e2 f7       	brpl	.-8      	; 0x106 <set_pin_dir+0x56>
     10e:	a3 2f       	mov	r26, r19
     110:	b2 2f       	mov	r27, r18
     112:	40 95       	com	r20
     114:	2e 91       	ld	r18, -X
     116:	42 23       	and	r20, r18
     118:	4c 93       	st	X, r20
		*GPIOx->port &= ~(1 << GPIOx->pin);
     11a:	a0 81       	ld	r26, Z
     11c:	b1 81       	ldd	r27, Z+1	; 0x01
     11e:	02 80       	ldd	r0, Z+2	; 0x02
     120:	02 c0       	rjmp	.+4      	; 0x126 <set_pin_dir+0x76>
     122:	88 0f       	add	r24, r24
     124:	99 1f       	adc	r25, r25
     126:	0a 94       	dec	r0
     128:	e2 f7       	brpl	.-8      	; 0x122 <set_pin_dir+0x72>
     12a:	80 95       	com	r24
     12c:	9c 91       	ld	r25, X
     12e:	89 23       	and	r24, r25
     130:	8c 93       	st	X, r24
     132:	08 95       	ret

00000134 <rtc_int_enable>:
};



void rtc_int_enable(rtc_date *RTCx , const uint16_t int_time){
	rtc_config_3[0] |= (1 << TIE);
     134:	80 91 30 01 	lds	r24, 0x0130	; 0x800130 <rtc_config_3>
     138:	80 61       	ori	r24, 0x10	; 16
     13a:	80 93 30 01 	sts	0x0130, r24	; 0x800130 <rtc_config_3>
	rtc_config_2[0] |= (1 << TD) | (1 << TE);
     13e:	80 91 31 01 	lds	r24, 0x0131	; 0x800131 <rtc_config_2>
     142:	81 61       	ori	r24, 0x11	; 17
     144:	80 93 31 01 	sts	0x0131, r24	; 0x800131 <rtc_config_2>
	
	twi_write(RTC_ADDR,TIMER_COUNTER0_REG,rtc_config_1,sizeof(rtc_config_1));
     148:	22 e0       	ldi	r18, 0x02	; 2
     14a:	30 e0       	ldi	r19, 0x00	; 0
     14c:	40 e6       	ldi	r20, 0x60	; 96
     14e:	50 e0       	ldi	r21, 0x00	; 0
     150:	6b e0       	ldi	r22, 0x0B	; 11
     152:	82 e3       	ldi	r24, 0x32	; 50
     154:	c4 d1       	rcall	.+904    	; 0x4de <twi_write>
	twi_write(RTC_ADDR,EXT_REG,rtc_config_2,sizeof(rtc_config_2));
     156:	21 e0       	ldi	r18, 0x01	; 1
     158:	30 e0       	ldi	r19, 0x00	; 0
     15a:	41 e3       	ldi	r20, 0x31	; 49
     15c:	51 e0       	ldi	r21, 0x01	; 1
     15e:	6d e0       	ldi	r22, 0x0D	; 13
     160:	82 e3       	ldi	r24, 0x32	; 50
     162:	bd d1       	rcall	.+890    	; 0x4de <twi_write>
	twi_write(RTC_ADDR,CONTROLL_REG,rtc_config_3,sizeof(rtc_config_3));
     164:	21 e0       	ldi	r18, 0x01	; 1
     166:	30 e0       	ldi	r19, 0x00	; 0
     168:	40 e3       	ldi	r20, 0x30	; 48
     16a:	51 e0       	ldi	r21, 0x01	; 1
     16c:	6f e0       	ldi	r22, 0x0F	; 15
     16e:	82 e3       	ldi	r24, 0x32	; 50
     170:	b6 d1       	rcall	.+876    	; 0x4de <twi_write>
     172:	08 95       	ret

00000174 <BCDtoDEC>:
	twi_write(RTC_ADDR,0x00,rtc_raw,sizeof(rtc_raw));
}

uint8_t BCDtoDEC(uint8_t val)
{
	return ((val / 0x10) * 10) + (val % 0x10);
     174:	98 2f       	mov	r25, r24
     176:	92 95       	swap	r25
     178:	9f 70       	andi	r25, 0x0F	; 15
     17a:	99 0f       	add	r25, r25
     17c:	29 2f       	mov	r18, r25
     17e:	22 0f       	add	r18, r18
     180:	22 0f       	add	r18, r18
     182:	92 0f       	add	r25, r18
     184:	8f 70       	andi	r24, 0x0F	; 15
}
     186:	89 0f       	add	r24, r25
     188:	08 95       	ret

0000018a <rtc_sync>:
	twi_write(RTC_ADDR,CONTROLL_REG,rtc_config_3,sizeof(rtc_config_3));
	
	
}

void rtc_sync(rtc_date *RTCx){
     18a:	0f 93       	push	r16
     18c:	1f 93       	push	r17
     18e:	cf 93       	push	r28
     190:	df 93       	push	r29
     192:	cd b7       	in	r28, 0x3d	; 61
     194:	de b7       	in	r29, 0x3e	; 62
     196:	27 97       	sbiw	r28, 0x07	; 7
     198:	0f b6       	in	r0, 0x3f	; 63
     19a:	f8 94       	cli
     19c:	de bf       	out	0x3e, r29	; 62
     19e:	0f be       	out	0x3f, r0	; 63
     1a0:	cd bf       	out	0x3d, r28	; 61
     1a2:	8c 01       	movw	r16, r24
	uint8_t rtc_raw[7];
	twi_read(RTC_ADDR, 0x00, rtc_raw, sizeof(rtc_raw));
     1a4:	27 e0       	ldi	r18, 0x07	; 7
     1a6:	30 e0       	ldi	r19, 0x00	; 0
     1a8:	ae 01       	movw	r20, r28
     1aa:	4f 5f       	subi	r20, 0xFF	; 255
     1ac:	5f 4f       	sbci	r21, 0xFF	; 255
     1ae:	60 e0       	ldi	r22, 0x00	; 0
     1b0:	82 e3       	ldi	r24, 0x32	; 50
     1b2:	2e d1       	rcall	.+604    	; 0x410 <twi_read>
	RTCx->second=BCDtoDEC(rtc_raw[0]);
     1b4:	89 81       	ldd	r24, Y+1	; 0x01
     1b6:	de df       	rcall	.-68     	; 0x174 <BCDtoDEC>
     1b8:	f8 01       	movw	r30, r16
     1ba:	80 83       	st	Z, r24
	RTCx->minute=BCDtoDEC(rtc_raw[1]);
     1bc:	8a 81       	ldd	r24, Y+2	; 0x02
     1be:	da df       	rcall	.-76     	; 0x174 <BCDtoDEC>
     1c0:	f8 01       	movw	r30, r16
     1c2:	81 83       	std	Z+1, r24	; 0x01
	RTCx->hour=BCDtoDEC(rtc_raw[2]);
     1c4:	8b 81       	ldd	r24, Y+3	; 0x03
     1c6:	d6 df       	rcall	.-84     	; 0x174 <BCDtoDEC>
     1c8:	f8 01       	movw	r30, r16
     1ca:	82 83       	std	Z+2, r24	; 0x02
	RTCx->dayofweek=rtc_raw[3];
     1cc:	8c 81       	ldd	r24, Y+4	; 0x04
     1ce:	87 83       	std	Z+7, r24	; 0x07
	RTCx->date=BCDtoDEC(rtc_raw[4]);
     1d0:	8d 81       	ldd	r24, Y+5	; 0x05
     1d2:	d0 df       	rcall	.-96     	; 0x174 <BCDtoDEC>
     1d4:	f8 01       	movw	r30, r16
     1d6:	83 83       	std	Z+3, r24	; 0x03
	RTCx->month=BCDtoDEC(rtc_raw[5]);
     1d8:	8e 81       	ldd	r24, Y+6	; 0x06
     1da:	cc df       	rcall	.-104    	; 0x174 <BCDtoDEC>
     1dc:	f8 01       	movw	r30, r16
     1de:	84 83       	std	Z+4, r24	; 0x04
	RTCx->year=BCDtoDEC(rtc_raw[6]);
     1e0:	8f 81       	ldd	r24, Y+7	; 0x07
     1e2:	c8 df       	rcall	.-112    	; 0x174 <BCDtoDEC>
     1e4:	90 e0       	ldi	r25, 0x00	; 0
     1e6:	f8 01       	movw	r30, r16
     1e8:	96 83       	std	Z+6, r25	; 0x06
     1ea:	85 83       	std	Z+5, r24	; 0x05
}
     1ec:	27 96       	adiw	r28, 0x07	; 7
     1ee:	0f b6       	in	r0, 0x3f	; 63
     1f0:	f8 94       	cli
     1f2:	de bf       	out	0x3e, r29	; 62
     1f4:	0f be       	out	0x3f, r0	; 63
     1f6:	cd bf       	out	0x3d, r28	; 61
     1f8:	df 91       	pop	r29
     1fa:	cf 91       	pop	r28
     1fc:	1f 91       	pop	r17
     1fe:	0f 91       	pop	r16
     200:	08 95       	ret

00000202 <DECtoBCD>:
}

// BCDtoDEC -- convert decimal to binary-coded decimal (BCD)
uint8_t DECtoBCD(uint8_t val)
{
	return ((val / 10) * 0x10) + (val % 10);
     202:	9d ec       	ldi	r25, 0xCD	; 205
     204:	89 9f       	mul	r24, r25
     206:	91 2d       	mov	r25, r1
     208:	11 24       	eor	r1, r1
     20a:	96 95       	lsr	r25
     20c:	96 95       	lsr	r25
     20e:	96 95       	lsr	r25
     210:	39 2f       	mov	r19, r25
     212:	33 0f       	add	r19, r19
     214:	23 2f       	mov	r18, r19
     216:	22 0f       	add	r18, r18
     218:	22 0f       	add	r18, r18
     21a:	23 0f       	add	r18, r19
     21c:	82 1b       	sub	r24, r18
}
     21e:	20 e1       	ldi	r18, 0x10	; 16
     220:	92 9f       	mul	r25, r18
     222:	80 0d       	add	r24, r0
     224:	11 24       	eor	r1, r1
     226:	08 95       	ret

00000228 <rtc_set>:
	RTCx->dayofweek=rtc_raw[3];
	RTCx->date=BCDtoDEC(rtc_raw[4]);
	RTCx->month=BCDtoDEC(rtc_raw[5]);
	RTCx->year=BCDtoDEC(rtc_raw[6]);
}
void rtc_set(rtc_date *RTCx){
     228:	0f 93       	push	r16
     22a:	1f 93       	push	r17
     22c:	cf 93       	push	r28
     22e:	df 93       	push	r29
     230:	cd b7       	in	r28, 0x3d	; 61
     232:	de b7       	in	r29, 0x3e	; 62
     234:	27 97       	sbiw	r28, 0x07	; 7
     236:	0f b6       	in	r0, 0x3f	; 63
     238:	f8 94       	cli
     23a:	de bf       	out	0x3e, r29	; 62
     23c:	0f be       	out	0x3f, r0	; 63
     23e:	cd bf       	out	0x3d, r28	; 61
     240:	8c 01       	movw	r16, r24
	uint8_t rtc_raw[7];
	rtc_raw[0]=DECtoBCD(RTCx->second);
     242:	fc 01       	movw	r30, r24
     244:	80 81       	ld	r24, Z
     246:	dd df       	rcall	.-70     	; 0x202 <DECtoBCD>
     248:	89 83       	std	Y+1, r24	; 0x01
	rtc_raw[1]=DECtoBCD(RTCx->minute);
     24a:	f8 01       	movw	r30, r16
     24c:	81 81       	ldd	r24, Z+1	; 0x01
     24e:	d9 df       	rcall	.-78     	; 0x202 <DECtoBCD>
     250:	8a 83       	std	Y+2, r24	; 0x02
	rtc_raw[2]=DECtoBCD(RTCx->hour);
     252:	f8 01       	movw	r30, r16
     254:	82 81       	ldd	r24, Z+2	; 0x02
     256:	d5 df       	rcall	.-86     	; 0x202 <DECtoBCD>
     258:	8b 83       	std	Y+3, r24	; 0x03
	rtc_raw[3]=RTCx->dayofweek;
     25a:	f8 01       	movw	r30, r16
     25c:	87 81       	ldd	r24, Z+7	; 0x07
     25e:	8c 83       	std	Y+4, r24	; 0x04
	rtc_raw[4]=DECtoBCD(RTCx->date);
     260:	83 81       	ldd	r24, Z+3	; 0x03
     262:	cf df       	rcall	.-98     	; 0x202 <DECtoBCD>
     264:	8d 83       	std	Y+5, r24	; 0x05
	rtc_raw[5]=DECtoBCD(RTCx->month);
     266:	f8 01       	movw	r30, r16
     268:	84 81       	ldd	r24, Z+4	; 0x04
     26a:	cb df       	rcall	.-106    	; 0x202 <DECtoBCD>
     26c:	8e 83       	std	Y+6, r24	; 0x06
	rtc_raw[6]=DECtoBCD(RTCx->year);
     26e:	f8 01       	movw	r30, r16
     270:	85 81       	ldd	r24, Z+5	; 0x05
     272:	c7 df       	rcall	.-114    	; 0x202 <DECtoBCD>
     274:	8f 83       	std	Y+7, r24	; 0x07
	twi_write(RTC_ADDR,0x00,rtc_raw,sizeof(rtc_raw));
     276:	27 e0       	ldi	r18, 0x07	; 7
     278:	30 e0       	ldi	r19, 0x00	; 0
     27a:	ae 01       	movw	r20, r28
     27c:	4f 5f       	subi	r20, 0xFF	; 255
     27e:	5f 4f       	sbci	r21, 0xFF	; 255
     280:	60 e0       	ldi	r22, 0x00	; 0
     282:	82 e3       	ldi	r24, 0x32	; 50
     284:	2c d1       	rcall	.+600    	; 0x4de <twi_write>
}
     286:	27 96       	adiw	r28, 0x07	; 7
     288:	0f b6       	in	r0, 0x3f	; 63
     28a:	f8 94       	cli
     28c:	de bf       	out	0x3e, r29	; 62
     28e:	0f be       	out	0x3f, r0	; 63
     290:	cd bf       	out	0x3d, r28	; 61
     292:	df 91       	pop	r29
     294:	cf 91       	pop	r28
     296:	1f 91       	pop	r17
     298:	0f 91       	pop	r16
     29a:	08 95       	ret

0000029c <__vector_8>:
}

uint8_t timer_status(void){
	return timer_counter;
	//sei();
}
     29c:	1f 92       	push	r1
     29e:	0f 92       	push	r0
     2a0:	0f b6       	in	r0, 0x3f	; 63
     2a2:	0f 92       	push	r0
     2a4:	11 24       	eor	r1, r1
     2a6:	0f 90       	pop	r0
     2a8:	0f be       	out	0x3f, r0	; 63
     2aa:	0f 90       	pop	r0
     2ac:	1f 90       	pop	r1
     2ae:	18 95       	reti

000002b0 <__vector_7>:
     2b0:	1f 92       	push	r1
     2b2:	0f 92       	push	r0
     2b4:	0f b6       	in	r0, 0x3f	; 63
     2b6:	0f 92       	push	r0
     2b8:	11 24       	eor	r1, r1
     2ba:	0f 90       	pop	r0
     2bc:	0f be       	out	0x3f, r0	; 63
     2be:	0f 90       	pop	r0
     2c0:	1f 90       	pop	r1
     2c2:	18 95       	reti

000002c4 <timer1_init>:

void timer1_init(uint16_t counter_reg){
	sei();
     2c4:	78 94       	sei
	DDRB = DDRB | (0b1 << PORTB1)|(0b1 << PORTB2);
     2c6:	87 b3       	in	r24, 0x17	; 23
     2c8:	86 60       	ori	r24, 0x06	; 6
     2ca:	87 bb       	out	0x17, r24	; 23
	OCR1A=119;
     2cc:	87 e7       	ldi	r24, 0x77	; 119
     2ce:	90 e0       	ldi	r25, 0x00	; 0
     2d0:	9b bd       	out	0x2b, r25	; 43
     2d2:	8a bd       	out	0x2a, r24	; 42
	OCR1B=135;
     2d4:	87 e8       	ldi	r24, 0x87	; 135
     2d6:	90 e0       	ldi	r25, 0x00	; 0
     2d8:	99 bd       	out	0x29, r25	; 41
     2da:	88 bd       	out	0x28, r24	; 40
	TCCR1A =TCCR1A|(0b10 <<COM1A0)|(0b11 <<COM1B0)|(0b01 << WGM10);
     2dc:	8f b5       	in	r24, 0x2f	; 47
     2de:	81 6b       	ori	r24, 0xB1	; 177
     2e0:	8f bd       	out	0x2f, r24	; 47
	TCCR1B |= (0b1 << CS10) | (0b00 << WGM12);
     2e2:	8e b5       	in	r24, 0x2e	; 46
     2e4:	81 60       	ori	r24, 0x01	; 1
     2e6:	8e bd       	out	0x2e, r24	; 46
     2e8:	08 95       	ret

000002ea <twi_start>:
	status = (TWSR & 0xF8);
}

static uint8_t twi_start(void){
	uint16_t i = 0;
	TWCR = (1 << TWINT) | (1 << TWSTA) | (1 << TWEN) | (1 << TWIE);
     2ea:	85 ea       	ldi	r24, 0xA5	; 165
     2ec:	86 bf       	out	0x36, r24	; 54
ISR(TWI_vect){
	status = (TWSR & 0xF8);
}

static uint8_t twi_start(void){
	uint16_t i = 0;
     2ee:	80 e0       	ldi	r24, 0x00	; 0
     2f0:	90 e0       	ldi	r25, 0x00	; 0
	TWCR = (1 << TWINT) | (1 << TWSTA) | (1 << TWEN) | (1 << TWIE);
	
	while(status != TWI_START){
     2f2:	05 c0       	rjmp	.+10     	; 0x2fe <twi_start+0x14>
		i++;
     2f4:	01 96       	adiw	r24, 0x01	; 1
		if(i >= TWI_TIMEOUT){
     2f6:	80 34       	cpi	r24, 0x40	; 64
     2f8:	26 e0       	ldi	r18, 0x06	; 6
     2fa:	92 07       	cpc	r25, r18
     2fc:	30 f4       	brcc	.+12     	; 0x30a <twi_start+0x20>

static uint8_t twi_start(void){
	uint16_t i = 0;
	TWCR = (1 << TWINT) | (1 << TWSTA) | (1 << TWEN) | (1 << TWIE);
	
	while(status != TWI_START){
     2fe:	20 91 62 00 	lds	r18, 0x0062	; 0x800062 <status>
     302:	28 30       	cpi	r18, 0x08	; 8
     304:	b9 f7       	brne	.-18     	; 0x2f4 <twi_start+0xa>
		i++;
		if(i >= TWI_TIMEOUT){
			return TWI_ERROR_START;
		}
	}
	return TWI_OK;
     306:	80 e0       	ldi	r24, 0x00	; 0
     308:	08 95       	ret
	TWCR = (1 << TWINT) | (1 << TWSTA) | (1 << TWEN) | (1 << TWIE);
	
	while(status != TWI_START){
		i++;
		if(i >= TWI_TIMEOUT){
			return TWI_ERROR_START;
     30a:	81 e0       	ldi	r24, 0x01	; 1
		}
	}
	return TWI_OK;
}
     30c:	08 95       	ret

0000030e <twi_stop>:

static void twi_stop(void){
	
	TWCR = (1 << TWINT) | (1 << TWSTO) | (1 << TWEN) | (1 << TWIE);
     30e:	85 e9       	ldi	r24, 0x95	; 149
     310:	86 bf       	out	0x36, r24	; 54
     312:	08 95       	ret

00000314 <twi_restart>:
}

static uint8_t twi_restart(void){
	uint16_t i = 0;
	TWCR = (1 << TWINT) | (1 << TWSTA) | (1 << TWEN) | (1 << TWIE);
     314:	85 ea       	ldi	r24, 0xA5	; 165
     316:	86 bf       	out	0x36, r24	; 54
	
	TWCR = (1 << TWINT) | (1 << TWSTO) | (1 << TWEN) | (1 << TWIE);
}

static uint8_t twi_restart(void){
	uint16_t i = 0;
     318:	80 e0       	ldi	r24, 0x00	; 0
     31a:	90 e0       	ldi	r25, 0x00	; 0
	TWCR = (1 << TWINT) | (1 << TWSTA) | (1 << TWEN) | (1 << TWIE);
	
	while(status != TWI_RSTART){
     31c:	05 c0       	rjmp	.+10     	; 0x328 <twi_restart+0x14>
		i++;
     31e:	01 96       	adiw	r24, 0x01	; 1
		if(i >= TWI_TIMEOUT){
     320:	80 34       	cpi	r24, 0x40	; 64
     322:	26 e0       	ldi	r18, 0x06	; 6
     324:	92 07       	cpc	r25, r18
     326:	30 f4       	brcc	.+12     	; 0x334 <twi_restart+0x20>

static uint8_t twi_restart(void){
	uint16_t i = 0;
	TWCR = (1 << TWINT) | (1 << TWSTA) | (1 << TWEN) | (1 << TWIE);
	
	while(status != TWI_RSTART){
     328:	20 91 62 00 	lds	r18, 0x0062	; 0x800062 <status>
     32c:	20 31       	cpi	r18, 0x10	; 16
     32e:	b9 f7       	brne	.-18     	; 0x31e <twi_restart+0xa>
		i++;
		if(i >= TWI_TIMEOUT){
			return TWI_ERROR_START;
		}
	}
	return TWI_OK;
     330:	80 e0       	ldi	r24, 0x00	; 0
     332:	08 95       	ret
	TWCR = (1 << TWINT) | (1 << TWSTA) | (1 << TWEN) | (1 << TWIE);
	
	while(status != TWI_RSTART){
		i++;
		if(i >= TWI_TIMEOUT){
			return TWI_ERROR_START;
     334:	81 e0       	ldi	r24, 0x01	; 1
		}
	}
	return TWI_OK;
}
     336:	08 95       	ret

00000338 <twi_addr_write_ack>:

static uint8_t twi_addr_write_ack(void){
	uint16_t i = 0;
	TWCR = (1 << TWINT) | (1 << TWEN) | (1 << TWIE);
     338:	85 e8       	ldi	r24, 0x85	; 133
     33a:	86 bf       	out	0x36, r24	; 54
	}
	return TWI_OK;
}

static uint8_t twi_addr_write_ack(void){
	uint16_t i = 0;
     33c:	80 e0       	ldi	r24, 0x00	; 0
     33e:	90 e0       	ldi	r25, 0x00	; 0
	TWCR = (1 << TWINT) | (1 << TWEN) | (1 << TWIE);
	while(status != TWIT_ADDR_ACK){
     340:	05 c0       	rjmp	.+10     	; 0x34c <twi_addr_write_ack+0x14>
		i++;
     342:	01 96       	adiw	r24, 0x01	; 1
		if(i >= TWI_TIMEOUT){
     344:	80 34       	cpi	r24, 0x40	; 64
     346:	26 e0       	ldi	r18, 0x06	; 6
     348:	92 07       	cpc	r25, r18
     34a:	30 f4       	brcc	.+12     	; 0x358 <twi_addr_write_ack+0x20>
}

static uint8_t twi_addr_write_ack(void){
	uint16_t i = 0;
	TWCR = (1 << TWINT) | (1 << TWEN) | (1 << TWIE);
	while(status != TWIT_ADDR_ACK){
     34c:	20 91 62 00 	lds	r18, 0x0062	; 0x800062 <status>
     350:	28 31       	cpi	r18, 0x18	; 24
     352:	b9 f7       	brne	.-18     	; 0x342 <twi_addr_write_ack+0xa>
		i++;
		if(i >= TWI_TIMEOUT){
			return TWI_ERROR_START;
		}
	}
	return TWI_OK;
     354:	80 e0       	ldi	r24, 0x00	; 0
     356:	08 95       	ret
	uint16_t i = 0;
	TWCR = (1 << TWINT) | (1 << TWEN) | (1 << TWIE);
	while(status != TWIT_ADDR_ACK){
		i++;
		if(i >= TWI_TIMEOUT){
			return TWI_ERROR_START;
     358:	81 e0       	ldi	r24, 0x01	; 1
		}
	}
	return TWI_OK;
}
     35a:	08 95       	ret

0000035c <twi_data_write_ack>:


static uint8_t twi_data_write_ack(void){
	uint16_t i = 0;
	
	TWCR = (1 << TWINT) | (1 << TWEN) | (1 << TWIE);
     35c:	85 e8       	ldi	r24, 0x85	; 133
     35e:	86 bf       	out	0x36, r24	; 54
	return TWI_OK;
}


static uint8_t twi_data_write_ack(void){
	uint16_t i = 0;
     360:	80 e0       	ldi	r24, 0x00	; 0
     362:	90 e0       	ldi	r25, 0x00	; 0
	
	TWCR = (1 << TWINT) | (1 << TWEN) | (1 << TWIE);
	while(status != TWIT_DATA_ACK){
     364:	05 c0       	rjmp	.+10     	; 0x370 <twi_data_write_ack+0x14>
		i++;
     366:	01 96       	adiw	r24, 0x01	; 1
		if(i >= TWI_TIMEOUT){
     368:	80 34       	cpi	r24, 0x40	; 64
     36a:	26 e0       	ldi	r18, 0x06	; 6
     36c:	92 07       	cpc	r25, r18
     36e:	30 f4       	brcc	.+12     	; 0x37c <twi_data_write_ack+0x20>

static uint8_t twi_data_write_ack(void){
	uint16_t i = 0;
	
	TWCR = (1 << TWINT) | (1 << TWEN) | (1 << TWIE);
	while(status != TWIT_DATA_ACK){
     370:	20 91 62 00 	lds	r18, 0x0062	; 0x800062 <status>
     374:	28 32       	cpi	r18, 0x28	; 40
     376:	b9 f7       	brne	.-18     	; 0x366 <twi_data_write_ack+0xa>
		i++;
		if(i >= TWI_TIMEOUT){
			return TWI_ERROR_START;
		}
	}
	return TWI_OK;
     378:	80 e0       	ldi	r24, 0x00	; 0
     37a:	08 95       	ret
	
	TWCR = (1 << TWINT) | (1 << TWEN) | (1 << TWIE);
	while(status != TWIT_DATA_ACK){
		i++;
		if(i >= TWI_TIMEOUT){
			return TWI_ERROR_START;
     37c:	81 e0       	ldi	r24, 0x01	; 1
		}
	}
	return TWI_OK;
}
     37e:	08 95       	ret

00000380 <twi_addr_read_ack>:


static uint8_t twi_addr_read_ack(void){
	uint16_t i = 0;
	TWCR = (1 << TWINT) | (1 << TWEN) | (1 << TWIE);
     380:	85 e8       	ldi	r24, 0x85	; 133
     382:	86 bf       	out	0x36, r24	; 54
	return TWI_OK;
}


static uint8_t twi_addr_read_ack(void){
	uint16_t i = 0;
     384:	80 e0       	ldi	r24, 0x00	; 0
     386:	90 e0       	ldi	r25, 0x00	; 0
	TWCR = (1 << TWINT) | (1 << TWEN) | (1 << TWIE);
	while(status != TWIR_ADDR_ACK){
     388:	05 c0       	rjmp	.+10     	; 0x394 <twi_addr_read_ack+0x14>
		i++;
     38a:	01 96       	adiw	r24, 0x01	; 1
		if(i >= TWI_TIMEOUT){
     38c:	80 34       	cpi	r24, 0x40	; 64
     38e:	26 e0       	ldi	r18, 0x06	; 6
     390:	92 07       	cpc	r25, r18
     392:	30 f4       	brcc	.+12     	; 0x3a0 <twi_addr_read_ack+0x20>


static uint8_t twi_addr_read_ack(void){
	uint16_t i = 0;
	TWCR = (1 << TWINT) | (1 << TWEN) | (1 << TWIE);
	while(status != TWIR_ADDR_ACK){
     394:	20 91 62 00 	lds	r18, 0x0062	; 0x800062 <status>
     398:	20 34       	cpi	r18, 0x40	; 64
     39a:	b9 f7       	brne	.-18     	; 0x38a <twi_addr_read_ack+0xa>
		i++;
		if(i >= TWI_TIMEOUT){
			return TWI_ERROR_START;
		}
	}
	return TWI_OK;
     39c:	80 e0       	ldi	r24, 0x00	; 0
     39e:	08 95       	ret
	uint16_t i = 0;
	TWCR = (1 << TWINT) | (1 << TWEN) | (1 << TWIE);
	while(status != TWIR_ADDR_ACK){
		i++;
		if(i >= TWI_TIMEOUT){
			return TWI_ERROR_START;
     3a0:	81 e0       	ldi	r24, 0x01	; 1
		}
	}
	return TWI_OK;
}
     3a2:	08 95       	ret

000003a4 <twi_data_read_ack>:


static uint8_t twi_data_read_ack(uint8_t ack){
	uint16_t i = 0;
	if(ack != 0){
     3a4:	88 23       	and	r24, r24
     3a6:	81 f0       	breq	.+32     	; 0x3c8 <twi_data_read_ack+0x24>
		TWCR = (1 << TWINT) | (1 << TWEN) | (1 << TWIE) | (1 << TWEA);
     3a8:	85 ec       	ldi	r24, 0xC5	; 197
     3aa:	86 bf       	out	0x36, r24	; 54
	return TWI_OK;
}


static uint8_t twi_data_read_ack(uint8_t ack){
	uint16_t i = 0;
     3ac:	80 e0       	ldi	r24, 0x00	; 0
     3ae:	90 e0       	ldi	r25, 0x00	; 0
	if(ack != 0){
		TWCR = (1 << TWINT) | (1 << TWEN) | (1 << TWIE) | (1 << TWEA);
		while(status != TWIR_DATA_ACK){
     3b0:	05 c0       	rjmp	.+10     	; 0x3bc <twi_data_read_ack+0x18>
			i++;
     3b2:	01 96       	adiw	r24, 0x01	; 1
			if(i >= TWI_TIMEOUT){
     3b4:	80 34       	cpi	r24, 0x40	; 64
     3b6:	26 e0       	ldi	r18, 0x06	; 6
     3b8:	92 07       	cpc	r25, r18
     3ba:	b0 f4       	brcc	.+44     	; 0x3e8 <twi_data_read_ack+0x44>

static uint8_t twi_data_read_ack(uint8_t ack){
	uint16_t i = 0;
	if(ack != 0){
		TWCR = (1 << TWINT) | (1 << TWEN) | (1 << TWIE) | (1 << TWEA);
		while(status != TWIR_DATA_ACK){
     3bc:	20 91 62 00 	lds	r18, 0x0062	; 0x800062 <status>
     3c0:	20 35       	cpi	r18, 0x50	; 80
     3c2:	b9 f7       	brne	.-18     	; 0x3b2 <twi_data_read_ack+0xe>
				return TWI_ERROR_START;
			}
		}
		
	}
	return TWI_OK;
     3c4:	80 e0       	ldi	r24, 0x00	; 0
     3c6:	08 95       	ret
				return TWI_ERROR_START;
			}
		}
	}else{
		
		TWCR = (1 << TWINT) | (1 << TWEN) | (1 << TWIE);
     3c8:	85 e8       	ldi	r24, 0x85	; 133
     3ca:	86 bf       	out	0x36, r24	; 54
	return TWI_OK;
}


static uint8_t twi_data_read_ack(uint8_t ack){
	uint16_t i = 0;
     3cc:	80 e0       	ldi	r24, 0x00	; 0
     3ce:	90 e0       	ldi	r25, 0x00	; 0
			}
		}
	}else{
		
		TWCR = (1 << TWINT) | (1 << TWEN) | (1 << TWIE);
		while(status != TWIR_DATA_NACK){
     3d0:	05 c0       	rjmp	.+10     	; 0x3dc <twi_data_read_ack+0x38>
			i++;
     3d2:	01 96       	adiw	r24, 0x01	; 1
			if(i >= TWI_TIMEOUT){
     3d4:	80 34       	cpi	r24, 0x40	; 64
     3d6:	26 e0       	ldi	r18, 0x06	; 6
     3d8:	92 07       	cpc	r25, r18
     3da:	40 f4       	brcc	.+16     	; 0x3ec <twi_data_read_ack+0x48>
			}
		}
	}else{
		
		TWCR = (1 << TWINT) | (1 << TWEN) | (1 << TWIE);
		while(status != TWIR_DATA_NACK){
     3dc:	20 91 62 00 	lds	r18, 0x0062	; 0x800062 <status>
     3e0:	28 35       	cpi	r18, 0x58	; 88
     3e2:	b9 f7       	brne	.-18     	; 0x3d2 <twi_data_read_ack+0x2e>
				return TWI_ERROR_START;
			}
		}
		
	}
	return TWI_OK;
     3e4:	80 e0       	ldi	r24, 0x00	; 0
     3e6:	08 95       	ret
	if(ack != 0){
		TWCR = (1 << TWINT) | (1 << TWEN) | (1 << TWIE) | (1 << TWEA);
		while(status != TWIR_DATA_ACK){
			i++;
			if(i >= TWI_TIMEOUT){
				return TWI_ERROR_START;
     3e8:	81 e0       	ldi	r24, 0x01	; 1
     3ea:	08 95       	ret
		
		TWCR = (1 << TWINT) | (1 << TWEN) | (1 << TWIE);
		while(status != TWIR_DATA_NACK){
			i++;
			if(i >= TWI_TIMEOUT){
				return TWI_ERROR_START;
     3ec:	81 e0       	ldi	r24, 0x01	; 1
			}
		}
		
	}
	return TWI_OK;
}
     3ee:	08 95       	ret

000003f0 <__vector_17>:

#include "twi_hal.h"

volatile uint8_t status = 0xF8;

ISR(TWI_vect){
     3f0:	1f 92       	push	r1
     3f2:	0f 92       	push	r0
     3f4:	0f b6       	in	r0, 0x3f	; 63
     3f6:	0f 92       	push	r0
     3f8:	11 24       	eor	r1, r1
     3fa:	8f 93       	push	r24
	status = (TWSR & 0xF8);
     3fc:	81 b1       	in	r24, 0x01	; 1
     3fe:	88 7f       	andi	r24, 0xF8	; 248
     400:	80 93 62 00 	sts	0x0062, r24	; 0x800062 <status>
}
     404:	8f 91       	pop	r24
     406:	0f 90       	pop	r0
     408:	0f be       	out	0x3f, r0	; 63
     40a:	0f 90       	pop	r0
     40c:	1f 90       	pop	r1
     40e:	18 95       	reti

00000410 <twi_read>:
		
	}
	return TWI_OK;
}

uint8_t twi_read(uint8_t addr,uint8_t reg,uint8_t *data,uint16_t len){
     410:	cf 92       	push	r12
     412:	df 92       	push	r13
     414:	ef 92       	push	r14
     416:	ff 92       	push	r15
     418:	0f 93       	push	r16
     41a:	1f 93       	push	r17
     41c:	cf 93       	push	r28
     41e:	d8 2e       	mov	r13, r24
     420:	c6 2e       	mov	r12, r22
     422:	7a 01       	movw	r14, r20
     424:	89 01       	movw	r16, r18
	
	uint16_t i = 0;
	uint8_t err = TWI_OK;
	
	err = twi_start();
     426:	61 df       	rcall	.-318    	; 0x2ea <twi_start>
     428:	c8 2f       	mov	r28, r24
	if(err != TWI_OK){
     42a:	88 23       	and	r24, r24
     42c:	19 f0       	breq	.+6      	; 0x434 <twi_read+0x24>
		twi_stop();
     42e:	6f df       	rcall	.-290    	; 0x30e <twi_stop>
		return err;
     430:	8c 2f       	mov	r24, r28
     432:	4d c0       	rjmp	.+154    	; 0x4ce <__stack+0x6f>
	}
	TWDR = (addr << 1) | 0;
     434:	8d 2d       	mov	r24, r13
     436:	88 0f       	add	r24, r24
     438:	83 b9       	out	0x03, r24	; 3
	
	
	err = twi_addr_write_ack();
     43a:	7e df       	rcall	.-260    	; 0x338 <twi_addr_write_ack>
     43c:	c8 2f       	mov	r28, r24
	if(err != TWI_OK){
     43e:	88 23       	and	r24, r24
     440:	19 f0       	breq	.+6      	; 0x448 <twi_read+0x38>
		twi_stop();
     442:	65 df       	rcall	.-310    	; 0x30e <twi_stop>
		return err;
     444:	8c 2f       	mov	r24, r28
     446:	43 c0       	rjmp	.+134    	; 0x4ce <__stack+0x6f>
	}
	
	TWDR = reg;
     448:	c3 b8       	out	0x03, r12	; 3
	err = twi_data_write_ack();
     44a:	88 df       	rcall	.-240    	; 0x35c <twi_data_write_ack>
     44c:	c8 2f       	mov	r28, r24
	if(err != TWI_OK){
     44e:	88 23       	and	r24, r24
     450:	19 f0       	breq	.+6      	; 0x458 <twi_read+0x48>
		twi_stop();
     452:	5d df       	rcall	.-326    	; 0x30e <twi_stop>
		return err;
     454:	8c 2f       	mov	r24, r28
     456:	3b c0       	rjmp	.+118    	; 0x4ce <__stack+0x6f>
	}
	
	err = twi_restart();
     458:	5d df       	rcall	.-326    	; 0x314 <twi_restart>
     45a:	c8 2f       	mov	r28, r24
	if(err != TWI_OK){
     45c:	88 23       	and	r24, r24
     45e:	19 f0       	breq	.+6      	; 0x466 <__stack+0x7>
		twi_stop();
     460:	56 df       	rcall	.-340    	; 0x30e <twi_stop>
		return err;
     462:	8c 2f       	mov	r24, r28
     464:	34 c0       	rjmp	.+104    	; 0x4ce <__stack+0x6f>
	}
	
	TWDR = (addr << 1) | 1;
     466:	8d 2d       	mov	r24, r13
     468:	90 e0       	ldi	r25, 0x00	; 0
     46a:	88 0f       	add	r24, r24
     46c:	99 1f       	adc	r25, r25
     46e:	81 60       	ori	r24, 0x01	; 1
     470:	83 b9       	out	0x03, r24	; 3

	err = twi_addr_read_ack();
     472:	86 df       	rcall	.-244    	; 0x380 <twi_addr_read_ack>
     474:	c8 2f       	mov	r28, r24
	if(err != TWI_OK){
     476:	88 23       	and	r24, r24
     478:	a1 f0       	breq	.+40     	; 0x4a2 <__stack+0x43>
		twi_stop();
     47a:	49 df       	rcall	.-366    	; 0x30e <twi_stop>
		return err;
     47c:	8c 2f       	mov	r24, r28
     47e:	27 c0       	rjmp	.+78     	; 0x4ce <__stack+0x6f>
	}
	
	for(i = 0; i < (len - 1);i++){
		err = twi_data_read_ack(1);
     480:	81 e0       	ldi	r24, 0x01	; 1
     482:	90 df       	rcall	.-224    	; 0x3a4 <twi_data_read_ack>
     484:	c8 2f       	mov	r28, r24
		if(err != TWI_OK){
     486:	88 23       	and	r24, r24
     488:	19 f0       	breq	.+6      	; 0x490 <__stack+0x31>
			twi_stop();
     48a:	41 df       	rcall	.-382    	; 0x30e <twi_stop>
			return err;
     48c:	8c 2f       	mov	r24, r28
     48e:	1f c0       	rjmp	.+62     	; 0x4ce <__stack+0x6f>
		}
		data[i] = TWDR;
     490:	f7 01       	movw	r30, r14
     492:	ec 0d       	add	r30, r12
     494:	fd 1d       	adc	r31, r13
     496:	83 b1       	in	r24, 0x03	; 3
     498:	80 83       	st	Z, r24
	if(err != TWI_OK){
		twi_stop();
		return err;
	}
	
	for(i = 0; i < (len - 1);i++){
     49a:	8f ef       	ldi	r24, 0xFF	; 255
     49c:	c8 1a       	sub	r12, r24
     49e:	d8 0a       	sbc	r13, r24
     4a0:	02 c0       	rjmp	.+4      	; 0x4a6 <__stack+0x47>
     4a2:	c1 2c       	mov	r12, r1
     4a4:	d1 2c       	mov	r13, r1
     4a6:	c8 01       	movw	r24, r16
     4a8:	01 97       	sbiw	r24, 0x01	; 1
     4aa:	c8 16       	cp	r12, r24
     4ac:	d9 06       	cpc	r13, r25
     4ae:	40 f3       	brcs	.-48     	; 0x480 <__stack+0x21>
			return err;
		}
		data[i] = TWDR;
	}
	
	err = twi_data_read_ack(0);
     4b0:	80 e0       	ldi	r24, 0x00	; 0
     4b2:	78 df       	rcall	.-272    	; 0x3a4 <twi_data_read_ack>
     4b4:	c8 2f       	mov	r28, r24
	if(err != TWI_OK){
     4b6:	88 23       	and	r24, r24
     4b8:	19 f0       	breq	.+6      	; 0x4c0 <__stack+0x61>
		twi_stop();
     4ba:	29 df       	rcall	.-430    	; 0x30e <twi_stop>
		return err;
     4bc:	8c 2f       	mov	r24, r28
     4be:	07 c0       	rjmp	.+14     	; 0x4ce <__stack+0x6f>
	}
	data[i] = TWDR;
     4c0:	f7 01       	movw	r30, r14
     4c2:	ec 0d       	add	r30, r12
     4c4:	fd 1d       	adc	r31, r13
     4c6:	83 b1       	in	r24, 0x03	; 3
     4c8:	80 83       	st	Z, r24
	
	twi_stop();
     4ca:	21 df       	rcall	.-446    	; 0x30e <twi_stop>
	
	return err;
     4cc:	8c 2f       	mov	r24, r28
}
     4ce:	cf 91       	pop	r28
     4d0:	1f 91       	pop	r17
     4d2:	0f 91       	pop	r16
     4d4:	ff 90       	pop	r15
     4d6:	ef 90       	pop	r14
     4d8:	df 90       	pop	r13
     4da:	cf 90       	pop	r12
     4dc:	08 95       	ret

000004de <twi_write>:


uint8_t twi_write(uint8_t addr,uint8_t reg,uint8_t *data,uint16_t len){
     4de:	cf 92       	push	r12
     4e0:	df 92       	push	r13
     4e2:	ef 92       	push	r14
     4e4:	ff 92       	push	r15
     4e6:	0f 93       	push	r16
     4e8:	1f 93       	push	r17
     4ea:	cf 93       	push	r28
     4ec:	18 2f       	mov	r17, r24
     4ee:	06 2f       	mov	r16, r22
     4f0:	6a 01       	movw	r12, r20
     4f2:	79 01       	movw	r14, r18
	
	uint16_t i = 0;
	uint8_t err = TWI_OK;
	
	err = twi_start();
     4f4:	fa de       	rcall	.-524    	; 0x2ea <twi_start>
     4f6:	c8 2f       	mov	r28, r24
	if(err != TWI_OK){
     4f8:	88 23       	and	r24, r24
     4fa:	19 f0       	breq	.+6      	; 0x502 <twi_write+0x24>
		twi_stop();
     4fc:	08 df       	rcall	.-496    	; 0x30e <twi_stop>
		return err;
     4fe:	8c 2f       	mov	r24, r28
     500:	27 c0       	rjmp	.+78     	; 0x550 <twi_write+0x72>
	}
	TWDR = (addr << 1) | 0;
     502:	11 0f       	add	r17, r17
     504:	13 b9       	out	0x03, r17	; 3
	
	
	err = twi_addr_write_ack();
     506:	18 df       	rcall	.-464    	; 0x338 <twi_addr_write_ack>
     508:	c8 2f       	mov	r28, r24
	if(err != TWI_OK){
     50a:	88 23       	and	r24, r24
     50c:	19 f0       	breq	.+6      	; 0x514 <twi_write+0x36>
		twi_stop();
     50e:	ff de       	rcall	.-514    	; 0x30e <twi_stop>
		return err;
     510:	8c 2f       	mov	r24, r28
     512:	1e c0       	rjmp	.+60     	; 0x550 <twi_write+0x72>
	}
	
	TWDR = reg;
     514:	03 b9       	out	0x03, r16	; 3
	err = twi_data_write_ack();
     516:	22 df       	rcall	.-444    	; 0x35c <twi_data_write_ack>
     518:	c8 2f       	mov	r28, r24
	if(err != TWI_OK){
     51a:	88 23       	and	r24, r24
     51c:	91 f0       	breq	.+36     	; 0x542 <twi_write+0x64>
		twi_stop();
     51e:	f7 de       	rcall	.-530    	; 0x30e <twi_stop>
		return err;
     520:	8c 2f       	mov	r24, r28
     522:	16 c0       	rjmp	.+44     	; 0x550 <twi_write+0x72>
	}
	
	for(i = 0; i < len;i++){
		TWDR = data[i];
     524:	f6 01       	movw	r30, r12
     526:	e0 0f       	add	r30, r16
     528:	f1 1f       	adc	r31, r17
     52a:	80 81       	ld	r24, Z
     52c:	83 b9       	out	0x03, r24	; 3
		err = twi_data_write_ack();
     52e:	16 df       	rcall	.-468    	; 0x35c <twi_data_write_ack>
     530:	c8 2f       	mov	r28, r24
		if(err != TWI_OK){
     532:	88 23       	and	r24, r24
     534:	19 f0       	breq	.+6      	; 0x53c <twi_write+0x5e>
			twi_stop();
     536:	eb de       	rcall	.-554    	; 0x30e <twi_stop>
			return err;
     538:	8c 2f       	mov	r24, r28
     53a:	0a c0       	rjmp	.+20     	; 0x550 <twi_write+0x72>
	if(err != TWI_OK){
		twi_stop();
		return err;
	}
	
	for(i = 0; i < len;i++){
     53c:	0f 5f       	subi	r16, 0xFF	; 255
     53e:	1f 4f       	sbci	r17, 0xFF	; 255
     540:	02 c0       	rjmp	.+4      	; 0x546 <twi_write+0x68>
     542:	00 e0       	ldi	r16, 0x00	; 0
     544:	10 e0       	ldi	r17, 0x00	; 0
     546:	0e 15       	cp	r16, r14
     548:	1f 05       	cpc	r17, r15
     54a:	60 f3       	brcs	.-40     	; 0x524 <twi_write+0x46>
			return err;
		}
	}
	
	
	twi_stop();
     54c:	e0 de       	rcall	.-576    	; 0x30e <twi_stop>
	
	return err;
     54e:	8c 2f       	mov	r24, r28
}
     550:	cf 91       	pop	r28
     552:	1f 91       	pop	r17
     554:	0f 91       	pop	r16
     556:	ff 90       	pop	r15
     558:	ef 90       	pop	r14
     55a:	df 90       	pop	r13
     55c:	cf 90       	pop	r12
     55e:	08 95       	ret

00000560 <twi_init>:





void twi_init(uint32_t speed){
     560:	9b 01       	movw	r18, r22
     562:	ac 01       	movw	r20, r24
	
	uint32_t gen_t = 0;
	gen_t = (((F_CPU/speed) - 16) / 2) & 0xFF;
     564:	60 e0       	ldi	r22, 0x00	; 0
     566:	74 e2       	ldi	r23, 0x24	; 36
     568:	84 ef       	ldi	r24, 0xF4	; 244
     56a:	90 e0       	ldi	r25, 0x00	; 0
     56c:	85 d2       	rcall	.+1290   	; 0xa78 <__udivmodsi4>
     56e:	da 01       	movw	r26, r20
     570:	c9 01       	movw	r24, r18
     572:	40 97       	sbiw	r24, 0x10	; 16
     574:	a1 09       	sbc	r26, r1
     576:	b1 09       	sbc	r27, r1
     578:	b6 95       	lsr	r27
     57a:	a7 95       	ror	r26
     57c:	97 95       	ror	r25
     57e:	87 95       	ror	r24
	TWBR = gen_t & 0xFF;
     580:	80 b9       	out	0x00, r24	; 0
	TWCR = (1 << TWEN) | (1 << TWIE);
     582:	85 e0       	ldi	r24, 0x05	; 5
     584:	86 bf       	out	0x36, r24	; 54
     586:	08 95       	ret

00000588 <serial_complete>:
	uint8_t data = 0;
	data = rx_buffer[rx_read_pos];
	rx_read_pos++;
	rx_count--;
	return data;
}
     588:	80 91 32 01 	lds	r24, 0x0132	; 0x800132 <read_complete>
     58c:	08 95       	ret

0000058e <serial_read_data>:
     58e:	10 92 32 01 	sts	0x0132, r1	; 0x800132 <read_complete>
     592:	10 92 34 02 	sts	0x0234, r1	; 0x800234 <rx_count+0x1>
     596:	10 92 33 02 	sts	0x0233, r1	; 0x800233 <rx_count>
     59a:	83 e3       	ldi	r24, 0x33	; 51
     59c:	91 e0       	ldi	r25, 0x01	; 1
     59e:	08 95       	ret

000005a0 <__vector_11>:
     5a0:	1f 92       	push	r1
     5a2:	0f 92       	push	r0
     5a4:	0f b6       	in	r0, 0x3f	; 63
     5a6:	0f 92       	push	r0
     5a8:	11 24       	eor	r1, r1
     5aa:	8f 93       	push	r24
     5ac:	9f 93       	push	r25
     5ae:	ef 93       	push	r30
     5b0:	ff 93       	push	r31
     5b2:	e0 91 33 02 	lds	r30, 0x0233	; 0x800233 <rx_count>
     5b6:	f0 91 34 02 	lds	r31, 0x0234	; 0x800234 <rx_count+0x1>
     5ba:	8c b1       	in	r24, 0x0c	; 12
     5bc:	ed 5c       	subi	r30, 0xCD	; 205
     5be:	fe 4f       	sbci	r31, 0xFE	; 254
     5c0:	80 83       	st	Z, r24
     5c2:	e0 91 33 02 	lds	r30, 0x0233	; 0x800233 <rx_count>
     5c6:	f0 91 34 02 	lds	r31, 0x0234	; 0x800234 <rx_count+0x1>
     5ca:	ed 5c       	subi	r30, 0xCD	; 205
     5cc:	fe 4f       	sbci	r31, 0xFE	; 254
     5ce:	80 81       	ld	r24, Z
     5d0:	8d 30       	cpi	r24, 0x0D	; 13
     5d2:	51 f4       	brne	.+20     	; 0x5e8 <__vector_11+0x48>
     5d4:	81 e0       	ldi	r24, 0x01	; 1
     5d6:	80 93 32 01 	sts	0x0132, r24	; 0x800132 <read_complete>
     5da:	e0 91 33 02 	lds	r30, 0x0233	; 0x800233 <rx_count>
     5de:	f0 91 34 02 	lds	r31, 0x0234	; 0x800234 <rx_count+0x1>
     5e2:	ec 5c       	subi	r30, 0xCC	; 204
     5e4:	fe 4f       	sbci	r31, 0xFE	; 254
     5e6:	10 82       	st	Z, r1
     5e8:	80 91 33 02 	lds	r24, 0x0233	; 0x800233 <rx_count>
     5ec:	90 91 34 02 	lds	r25, 0x0234	; 0x800234 <rx_count+0x1>
     5f0:	01 96       	adiw	r24, 0x01	; 1
     5f2:	90 93 34 02 	sts	0x0234, r25	; 0x800234 <rx_count+0x1>
     5f6:	80 93 33 02 	sts	0x0233, r24	; 0x800233 <rx_count>
     5fa:	ff 91       	pop	r31
     5fc:	ef 91       	pop	r30
     5fe:	9f 91       	pop	r25
     600:	8f 91       	pop	r24
     602:	0f 90       	pop	r0
     604:	0f be       	out	0x3f, r0	; 63
     606:	0f 90       	pop	r0
     608:	1f 90       	pop	r1
     60a:	18 95       	reti

0000060c <__vector_13>:
     60c:	1f 92       	push	r1
     60e:	0f 92       	push	r0
     610:	0f b6       	in	r0, 0x3f	; 63
     612:	0f 92       	push	r0
     614:	11 24       	eor	r1, r1
     616:	8f 93       	push	r24
     618:	81 e0       	ldi	r24, 0x01	; 1
     61a:	80 93 63 00 	sts	0x0063, r24	; 0x800063 <uart_tx_busy>
     61e:	8f 91       	pop	r24
     620:	0f 90       	pop	r0
     622:	0f be       	out	0x3f, r0	; 63
     624:	0f 90       	pop	r0
     626:	1f 90       	pop	r1
     628:	18 95       	reti

0000062a <uart_init>:
     62a:	44 23       	and	r20, r20
     62c:	29 f0       	breq	.+10     	; 0x638 <uart_init+0xe>
     62e:	2b b1       	in	r18, 0x0b	; 11
     630:	22 60       	ori	r18, 0x02	; 2
     632:	2b b9       	out	0x0b, r18	; 11
     634:	a8 e0       	ldi	r26, 0x08	; 8
     636:	01 c0       	rjmp	.+2      	; 0x63a <uart_init+0x10>
     638:	a0 e1       	ldi	r26, 0x10	; 16
     63a:	b0 e0       	ldi	r27, 0x00	; 0
     63c:	9b 01       	movw	r18, r22
     63e:	ac 01       	movw	r20, r24
     640:	3d d2       	rcall	.+1146   	; 0xabc <__muluhisi3>
     642:	9b 01       	movw	r18, r22
     644:	ac 01       	movw	r20, r24
     646:	60 e0       	ldi	r22, 0x00	; 0
     648:	74 e2       	ldi	r23, 0x24	; 36
     64a:	84 ef       	ldi	r24, 0xF4	; 244
     64c:	90 e0       	ldi	r25, 0x00	; 0
     64e:	14 d2       	rcall	.+1064   	; 0xa78 <__udivmodsi4>
     650:	ba 01       	movw	r22, r20
     652:	a9 01       	movw	r20, r18
     654:	41 50       	subi	r20, 0x01	; 1
     656:	51 09       	sbc	r21, r1
     658:	61 09       	sbc	r22, r1
     65a:	71 09       	sbc	r23, r1
     65c:	db 01       	movw	r26, r22
     65e:	ca 01       	movw	r24, r20
     660:	88 27       	eor	r24, r24
     662:	9f 70       	andi	r25, 0x0F	; 15
     664:	aa 27       	eor	r26, r26
     666:	bb 27       	eor	r27, r27
     668:	89 2f       	mov	r24, r25
     66a:	9a 2f       	mov	r25, r26
     66c:	ab 2f       	mov	r26, r27
     66e:	bb 27       	eor	r27, r27
     670:	80 bd       	out	0x20, r24	; 32
     672:	49 b9       	out	0x09, r20	; 9
     674:	8a b1       	in	r24, 0x0a	; 10
     676:	88 6d       	ori	r24, 0xD8	; 216
     678:	8a b9       	out	0x0a, r24	; 10
     67a:	86 e8       	ldi	r24, 0x86	; 134
     67c:	80 bd       	out	0x20, r24	; 32
     67e:	08 95       	ret

00000680 <parseString>:


uint8_t parseString(const char* input, display* output, rtc_date* newDate) {
     680:	ef 92       	push	r14
     682:	ff 92       	push	r15
     684:	0f 93       	push	r16
     686:	1f 93       	push	r17
     688:	cf 93       	push	r28
     68a:	df 93       	push	r29
     68c:	ec 01       	movw	r28, r24
     68e:	8b 01       	movw	r16, r22
     690:	7a 01       	movw	r14, r20

	if (strncmp(input, "$lim", 4) == 0) {
     692:	44 e0       	ldi	r20, 0x04	; 4
     694:	50 e0       	ldi	r21, 0x00	; 0
     696:	68 ea       	ldi	r22, 0xA8	; 168
     698:	70 e0       	ldi	r23, 0x00	; 0
     69a:	47 d2       	rcall	.+1166   	; 0xb2a <strncmp>
     69c:	89 2b       	or	r24, r25
     69e:	61 f4       	brne	.+24     	; 0x6b8 <parseString+0x38>
		strncpy(output->second_line, input + 4, sizeof(output->second_line) - 1);
     6a0:	be 01       	movw	r22, r28
     6a2:	6c 5f       	subi	r22, 0xFC	; 252
     6a4:	7f 4f       	sbci	r23, 0xFF	; 255
     6a6:	44 e1       	ldi	r20, 0x14	; 20
     6a8:	50 e0       	ldi	r21, 0x00	; 0
     6aa:	c8 01       	movw	r24, r16
     6ac:	45 96       	adiw	r24, 0x15	; 21
     6ae:	4b d2       	rcall	.+1174   	; 0xb46 <strncpy>
		output->second_line[sizeof(output->second_line) - 1] = '\0';
     6b0:	f8 01       	movw	r30, r16
     6b2:	11 a6       	std	Z+41, r1	; 0x29
		return TEXT_SYNC_REQUEST;
     6b4:	83 e0       	ldi	r24, 0x03	; 3
     6b6:	5f c0       	rjmp	.+190    	; 0x776 <parseString+0xf6>
	}
	
	if (strncmp(input, "$tim", 4) == 0){
     6b8:	44 e0       	ldi	r20, 0x04	; 4
     6ba:	50 e0       	ldi	r21, 0x00	; 0
     6bc:	6d ea       	ldi	r22, 0xAD	; 173
     6be:	70 e0       	ldi	r23, 0x00	; 0
     6c0:	ce 01       	movw	r24, r28
     6c2:	33 d2       	rcall	.+1126   	; 0xb2a <strncmp>
     6c4:	89 2b       	or	r24, r25
     6c6:	09 f5       	brne	.+66     	; 0x70a <parseString+0x8a>
		char* token = strtok((char*)(input + 4), ":");
     6c8:	62 eb       	ldi	r22, 0xB2	; 178
     6ca:	70 e0       	ldi	r23, 0x00	; 0
     6cc:	ce 01       	movw	r24, r28
     6ce:	04 96       	adiw	r24, 0x04	; 4
     6d0:	28 d2       	rcall	.+1104   	; 0xb22 <strtok>
		if (token != NULL) {
     6d2:	00 97       	sbiw	r24, 0x00	; 0
     6d4:	09 f4       	brne	.+2      	; 0x6d8 <parseString+0x58>
     6d6:	42 c0       	rjmp	.+132    	; 0x75c <parseString+0xdc>
			newDate->hour = atoi(token);
     6d8:	07 d2       	rcall	.+1038   	; 0xae8 <atoi>
     6da:	f7 01       	movw	r30, r14
     6dc:	82 83       	std	Z+2, r24	; 0x02
			token = strtok(NULL, ":");
     6de:	62 eb       	ldi	r22, 0xB2	; 178
     6e0:	70 e0       	ldi	r23, 0x00	; 0
     6e2:	80 e0       	ldi	r24, 0x00	; 0
     6e4:	90 e0       	ldi	r25, 0x00	; 0
     6e6:	1d d2       	rcall	.+1082   	; 0xb22 <strtok>
			
			if (token != NULL) {
     6e8:	00 97       	sbiw	r24, 0x00	; 0
     6ea:	d1 f1       	breq	.+116    	; 0x760 <parseString+0xe0>
				newDate->minute = atoi(token);
     6ec:	fd d1       	rcall	.+1018   	; 0xae8 <atoi>
     6ee:	f7 01       	movw	r30, r14
     6f0:	81 83       	std	Z+1, r24	; 0x01
				token = strtok(NULL, ":");
     6f2:	62 eb       	ldi	r22, 0xB2	; 178
     6f4:	70 e0       	ldi	r23, 0x00	; 0
     6f6:	80 e0       	ldi	r24, 0x00	; 0
     6f8:	90 e0       	ldi	r25, 0x00	; 0
     6fa:	13 d2       	rcall	.+1062   	; 0xb22 <strtok>
				
				if (token != NULL) {
     6fc:	00 97       	sbiw	r24, 0x00	; 0
     6fe:	91 f1       	breq	.+100    	; 0x764 <parseString+0xe4>
					newDate->second = atoi(token);
     700:	f3 d1       	rcall	.+998    	; 0xae8 <atoi>
     702:	f7 01       	movw	r30, r14
     704:	80 83       	st	Z, r24
				}
			}
		}
		return TIME_SYNC_REQUEST;
     706:	81 e0       	ldi	r24, 0x01	; 1
     708:	36 c0       	rjmp	.+108    	; 0x776 <parseString+0xf6>
	}
	if (strncmp(input, "$dat", 4) == 0){
     70a:	44 e0       	ldi	r20, 0x04	; 4
     70c:	50 e0       	ldi	r21, 0x00	; 0
     70e:	64 eb       	ldi	r22, 0xB4	; 180
     710:	70 e0       	ldi	r23, 0x00	; 0
     712:	ce 01       	movw	r24, r28
     714:	0a d2       	rcall	.+1044   	; 0xb2a <strncmp>
     716:	89 2b       	or	r24, r25
     718:	39 f5       	brne	.+78     	; 0x768 <parseString+0xe8>
		char* token = strtok((char*)(input + 4), "-");
     71a:	69 eb       	ldi	r22, 0xB9	; 185
     71c:	70 e0       	ldi	r23, 0x00	; 0
     71e:	ce 01       	movw	r24, r28
     720:	04 96       	adiw	r24, 0x04	; 4
     722:	ff d1       	rcall	.+1022   	; 0xb22 <strtok>
		if (token != NULL) {
     724:	00 97       	sbiw	r24, 0x00	; 0
     726:	11 f1       	breq	.+68     	; 0x76c <parseString+0xec>
			newDate->date = atoi(token);
     728:	df d1       	rcall	.+958    	; 0xae8 <atoi>
     72a:	f7 01       	movw	r30, r14
     72c:	83 83       	std	Z+3, r24	; 0x03
			token = strtok(NULL, "-");
     72e:	69 eb       	ldi	r22, 0xB9	; 185
     730:	70 e0       	ldi	r23, 0x00	; 0
     732:	80 e0       	ldi	r24, 0x00	; 0
     734:	90 e0       	ldi	r25, 0x00	; 0
     736:	f5 d1       	rcall	.+1002   	; 0xb22 <strtok>
			
			if (token != NULL) {
     738:	00 97       	sbiw	r24, 0x00	; 0
     73a:	d1 f0       	breq	.+52     	; 0x770 <parseString+0xf0>
				newDate->month = atoi(token);
     73c:	d5 d1       	rcall	.+938    	; 0xae8 <atoi>
     73e:	f7 01       	movw	r30, r14
     740:	84 83       	std	Z+4, r24	; 0x04
				token = strtok(NULL, "-");
     742:	69 eb       	ldi	r22, 0xB9	; 185
     744:	70 e0       	ldi	r23, 0x00	; 0
     746:	80 e0       	ldi	r24, 0x00	; 0
     748:	90 e0       	ldi	r25, 0x00	; 0
     74a:	eb d1       	rcall	.+982    	; 0xb22 <strtok>
				if (token != NULL) {
     74c:	00 97       	sbiw	r24, 0x00	; 0
     74e:	91 f0       	breq	.+36     	; 0x774 <parseString+0xf4>
					newDate->year = atoi(token);
     750:	cb d1       	rcall	.+918    	; 0xae8 <atoi>
     752:	f7 01       	movw	r30, r14
     754:	96 83       	std	Z+6, r25	; 0x06
     756:	85 83       	std	Z+5, r24	; 0x05
				}
			}
		}
		return DATE_SYNC_REQUEST;
     758:	82 e0       	ldi	r24, 0x02	; 2
     75a:	0d c0       	rjmp	.+26     	; 0x776 <parseString+0xf6>
				if (token != NULL) {
					newDate->second = atoi(token);
				}
			}
		}
		return TIME_SYNC_REQUEST;
     75c:	81 e0       	ldi	r24, 0x01	; 1
     75e:	0b c0       	rjmp	.+22     	; 0x776 <parseString+0xf6>
     760:	81 e0       	ldi	r24, 0x01	; 1
     762:	09 c0       	rjmp	.+18     	; 0x776 <parseString+0xf6>
     764:	81 e0       	ldi	r24, 0x01	; 1
     766:	07 c0       	rjmp	.+14     	; 0x776 <parseString+0xf6>
			}
		}
		return DATE_SYNC_REQUEST;
	}
	
	return ERROR_SYNC_REQUEST;
     768:	84 e0       	ldi	r24, 0x04	; 4
     76a:	05 c0       	rjmp	.+10     	; 0x776 <parseString+0xf6>
				if (token != NULL) {
					newDate->year = atoi(token);
				}
			}
		}
		return DATE_SYNC_REQUEST;
     76c:	82 e0       	ldi	r24, 0x02	; 2
     76e:	03 c0       	rjmp	.+6      	; 0x776 <parseString+0xf6>
     770:	82 e0       	ldi	r24, 0x02	; 2
     772:	01 c0       	rjmp	.+2      	; 0x776 <parseString+0xf6>
     774:	82 e0       	ldi	r24, 0x02	; 2
	}
	
	return ERROR_SYNC_REQUEST;
     776:	df 91       	pop	r29
     778:	cf 91       	pop	r28
     77a:	1f 91       	pop	r17
     77c:	0f 91       	pop	r16
     77e:	ff 90       	pop	r15
     780:	ef 90       	pop	r14
     782:	08 95       	ret

00000784 <spiwrite>:


void spiwrite(uint8_t c)
{
	unsigned char n;
	for(n=8; n>0; n--)
     784:	98 e0       	ldi	r25, 0x08	; 8
     786:	1d c0       	rjmp	.+58     	; 0x7c2 <spiwrite+0x3e>
	{
		CLK_LO;;              //SCL = low
     788:	28 b3       	in	r18, 0x18	; 24
     78a:	2f 7d       	andi	r18, 0xDF	; 223
     78c:	28 bb       	out	0x18, r18	; 24
		if(c &(1<<(n-1))){DAT_HI;}
     78e:	49 2f       	mov	r20, r25
     790:	50 e0       	ldi	r21, 0x00	; 0
     792:	41 50       	subi	r20, 0x01	; 1
     794:	51 09       	sbc	r21, r1
     796:	28 2f       	mov	r18, r24
     798:	30 e0       	ldi	r19, 0x00	; 0
     79a:	02 c0       	rjmp	.+4      	; 0x7a0 <spiwrite+0x1c>
     79c:	35 95       	asr	r19
     79e:	27 95       	ror	r18
     7a0:	4a 95       	dec	r20
     7a2:	e2 f7       	brpl	.-8      	; 0x79c <spiwrite+0x18>
     7a4:	20 ff       	sbrs	r18, 0
     7a6:	04 c0       	rjmp	.+8      	; 0x7b0 <spiwrite+0x2c>
     7a8:	28 b3       	in	r18, 0x18	; 24
     7aa:	28 60       	ori	r18, 0x08	; 8
     7ac:	28 bb       	out	0x18, r18	; 24
     7ae:	03 c0       	rjmp	.+6      	; 0x7b6 <spiwrite+0x32>
		else{ DAT_LO;}
     7b0:	28 b3       	in	r18, 0x18	; 24
     7b2:	27 7f       	andi	r18, 0xF7	; 247
     7b4:	28 bb       	out	0x18, r18	; 24
		nop();
     7b6:	00 00       	nop
		CLK_HI;               //SCL rising edge trigger
     7b8:	28 b3       	in	r18, 0x18	; 24
     7ba:	20 62       	ori	r18, 0x20	; 32
     7bc:	28 bb       	out	0x18, r18	; 24
		nop();
     7be:	00 00       	nop


void spiwrite(uint8_t c)
{
	unsigned char n;
	for(n=8; n>0; n--)
     7c0:	91 50       	subi	r25, 0x01	; 1
     7c2:	91 11       	cpse	r25, r1
     7c4:	e1 cf       	rjmp	.-62     	; 0x788 <spiwrite+0x4>
		else{ DAT_LO;}
		nop();
		CLK_HI;               //SCL rising edge trigger
		nop();
	}
}
     7c6:	08 95       	ret

000007c8 <vfd_command>:

void vfd_command(uint8_t c)
{
     7c8:	cf 93       	push	r28
     7ca:	c8 2f       	mov	r28, r24
	STB_HI
     7cc:	88 b3       	in	r24, 0x18	; 24
     7ce:	81 60       	ori	r24, 0x01	; 1
     7d0:	88 bb       	out	0x18, r24	; 24
	nop();
     7d2:	00 00       	nop
	STB_LO
     7d4:	88 b3       	in	r24, 0x18	; 24
     7d6:	8e 7f       	andi	r24, 0xFE	; 254
     7d8:	88 bb       	out	0x18, r24	; 24
	spiwrite(0xf8);
     7da:	88 ef       	ldi	r24, 0xF8	; 248
     7dc:	d3 df       	rcall	.-90     	; 0x784 <spiwrite>
	spiwrite(c);
     7de:	8c 2f       	mov	r24, r28
     7e0:	d1 df       	rcall	.-94     	; 0x784 <spiwrite>
	STB_HI
     7e2:	88 b3       	in	r24, 0x18	; 24
     7e4:	81 60       	ori	r24, 0x01	; 1
     7e6:	88 bb       	out	0x18, r24	; 24
	nop();
     7e8:	00 00       	nop
	STB_LO
     7ea:	88 b3       	in	r24, 0x18	; 24
     7ec:	8e 7f       	andi	r24, 0xFE	; 254
     7ee:	88 bb       	out	0x18, r24	; 24
}
     7f0:	cf 91       	pop	r28
     7f2:	08 95       	ret

000007f4 <vfd_data>:

void vfd_data(uint8_t c)
{
     7f4:	cf 93       	push	r28
     7f6:	c8 2f       	mov	r28, r24
	STB_HI
     7f8:	88 b3       	in	r24, 0x18	; 24
     7fa:	81 60       	ori	r24, 0x01	; 1
     7fc:	88 bb       	out	0x18, r24	; 24
	nop();
     7fe:	00 00       	nop
	STB_LO
     800:	88 b3       	in	r24, 0x18	; 24
     802:	8e 7f       	andi	r24, 0xFE	; 254
     804:	88 bb       	out	0x18, r24	; 24
	spiwrite(0xfa);
     806:	8a ef       	ldi	r24, 0xFA	; 250
     808:	bd df       	rcall	.-134    	; 0x784 <spiwrite>
	//_delay_us(1);
	spiwrite(c);
     80a:	8c 2f       	mov	r24, r28
     80c:	bb df       	rcall	.-138    	; 0x784 <spiwrite>
	STB_HI
     80e:	88 b3       	in	r24, 0x18	; 24
     810:	81 60       	ori	r24, 0x01	; 1
     812:	88 bb       	out	0x18, r24	; 24
	nop();
     814:	00 00       	nop
	STB_LO
     816:	88 b3       	in	r24, 0x18	; 24
     818:	8e 7f       	andi	r24, 0xFE	; 254
     81a:	88 bb       	out	0x18, r24	; 24
}
     81c:	cf 91       	pop	r28
     81e:	08 95       	ret

00000820 <vfd_init>:


void vfd_init()
{
     820:	cf 93       	push	r28
     822:	df 93       	push	r29
	RST_LO
     824:	85 b3       	in	r24, 0x15	; 21
     826:	8e 7f       	andi	r24, 0xFE	; 254
     828:	85 bb       	out	0x15, r24	; 21
	#else
		//round up by default
		__ticks_dc = (uint32_t)(ceil(fabs(__tmp)));
	#endif

	__builtin_avr_delay_cycles(__ticks_dc);
     82a:	8f e3       	ldi	r24, 0x3F	; 63
     82c:	9c e9       	ldi	r25, 0x9C	; 156
     82e:	01 97       	sbiw	r24, 0x01	; 1
     830:	f1 f7       	brne	.-4      	; 0x82e <vfd_init+0xe>
     832:	00 c0       	rjmp	.+0      	; 0x834 <vfd_init+0x14>
     834:	00 00       	nop
	_delay_ms(10);
	RST_HI
     836:	85 b3       	in	r24, 0x15	; 21
     838:	81 60       	ori	r24, 0x01	; 1
     83a:	85 bb       	out	0x15, r24	; 21
	CS_LO
     83c:	85 b3       	in	r24, 0x15	; 21
     83e:	8d 7f       	andi	r24, 0xFD	; 253
     840:	85 bb       	out	0x15, r24	; 21
	vfd_command(0b00111000); //0x38		//Function Set address [0,0,1,DL,N,X,BR1,BR0]
     842:	88 e3       	ldi	r24, 0x38	; 56
     844:	c1 df       	rcall	.-126    	; 0x7c8 <vfd_command>
	vfd_command(0b00000001); //0x01		//Clear Display
     846:	81 e0       	ldi	r24, 0x01	; 1
     848:	bf df       	rcall	.-130    	; 0x7c8 <vfd_command>
	vfd_data(0x00);						//sets DDRAM address at 00H
     84a:	80 e0       	ldi	r24, 0x00	; 0
     84c:	d3 df       	rcall	.-90     	; 0x7f4 <vfd_data>
	vfd_command(0b00001100); //0x0c		//Display ON/Off [0,0,0,0,1,D,C,B] D-screen on/off, C-cursor on/off, B-blink cursor on/off
     84e:	8c e0       	ldi	r24, 0x0C	; 12
     850:	bb df       	rcall	.-138    	; 0x7c8 <vfd_command>
	vfd_command(0b10000000); //0x80		//set cursor to 0 position
     852:	80 e8       	ldi	r24, 0x80	; 128
     854:	b9 df       	rcall	.-142    	; 0x7c8 <vfd_command>
	int i;
	for (i = 0; i < 64; i++) {
     856:	c0 e0       	ldi	r28, 0x00	; 0
     858:	d0 e0       	ldi	r29, 0x00	; 0
     85a:	03 c0       	rjmp	.+6      	; 0x862 <vfd_init+0x42>
		vfd_data(0xff);
     85c:	8f ef       	ldi	r24, 0xFF	; 255
     85e:	ca df       	rcall	.-108    	; 0x7f4 <vfd_data>
	vfd_command(0b00000001); //0x01		//Clear Display
	vfd_data(0x00);						//sets DDRAM address at 00H
	vfd_command(0b00001100); //0x0c		//Display ON/Off [0,0,0,0,1,D,C,B] D-screen on/off, C-cursor on/off, B-blink cursor on/off
	vfd_command(0b10000000); //0x80		//set cursor to 0 position
	int i;
	for (i = 0; i < 64; i++) {
     860:	21 96       	adiw	r28, 0x01	; 1
     862:	c0 34       	cpi	r28, 0x40	; 64
     864:	d1 05       	cpc	r29, r1
     866:	d4 f3       	brlt	.-12     	; 0x85c <vfd_init+0x3c>
		vfd_data(0xff);
	}
	vfd_command(0b00000001); //0x01
     868:	81 e0       	ldi	r24, 0x01	; 1
     86a:	ae df       	rcall	.-164    	; 0x7c8 <vfd_command>
	CS_HI
     86c:	85 b3       	in	r24, 0x15	; 21
     86e:	82 60       	ori	r24, 0x02	; 2
     870:	85 bb       	out	0x15, r24	; 21
}
     872:	df 91       	pop	r29
     874:	cf 91       	pop	r28
     876:	08 95       	ret

00000878 <vfd_set_cursor>:

void vfd_set_cursor(uint8_t line, uint8_t position){
	if(line==2){position += 0x40;}
     878:	82 30       	cpi	r24, 0x02	; 2
     87a:	09 f4       	brne	.+2      	; 0x87e <vfd_set_cursor+0x6>
     87c:	60 5c       	subi	r22, 0xC0	; 192
	CS_LO
     87e:	85 b3       	in	r24, 0x15	; 21
     880:	8d 7f       	andi	r24, 0xFD	; 253
     882:	85 bb       	out	0x15, r24	; 21
	vfd_command(0b10000000 | position);
     884:	86 2f       	mov	r24, r22
     886:	80 68       	ori	r24, 0x80	; 128
     888:	9f df       	rcall	.-194    	; 0x7c8 <vfd_command>
	CS_HI
     88a:	85 b3       	in	r24, 0x15	; 21
     88c:	82 60       	ori	r24, 0x02	; 2
     88e:	85 bb       	out	0x15, r24	; 21
     890:	08 95       	ret

00000892 <vfd_string>:
}


void vfd_string(uint8_t *c){
     892:	0f 93       	push	r16
     894:	1f 93       	push	r17
     896:	cf 93       	push	r28
     898:	df 93       	push	r29
     89a:	8c 01       	movw	r16, r24
	uint16_t i = 0;
     89c:	c0 e0       	ldi	r28, 0x00	; 0
     89e:	d0 e0       	ldi	r29, 0x00	; 0
	do{
		vfd_data(c[i]);
     8a0:	f8 01       	movw	r30, r16
     8a2:	ec 0f       	add	r30, r28
     8a4:	fd 1f       	adc	r31, r29
     8a6:	80 81       	ld	r24, Z
     8a8:	a5 df       	rcall	.-182    	; 0x7f4 <vfd_data>
		i++;
     8aa:	21 96       	adiw	r28, 0x01	; 1
		
	}while(c[i] != '\0');
     8ac:	f8 01       	movw	r30, r16
     8ae:	ec 0f       	add	r30, r28
     8b0:	fd 1f       	adc	r31, r29
     8b2:	80 81       	ld	r24, Z
     8b4:	81 11       	cpse	r24, r1
     8b6:	f4 cf       	rjmp	.-24     	; 0x8a0 <vfd_string+0xe>
	//uart_send_byte(c[i]);
     8b8:	df 91       	pop	r29
     8ba:	cf 91       	pop	r28
     8bc:	1f 91       	pop	r17
     8be:	0f 91       	pop	r16
     8c0:	08 95       	ret

000008c2 <main>:

int main(void)
{
   
   
   sei();
     8c2:	78 94       	sei
   uart_init(38400,0);
     8c4:	40 e0       	ldi	r20, 0x00	; 0
     8c6:	60 e0       	ldi	r22, 0x00	; 0
     8c8:	76 e9       	ldi	r23, 0x96	; 150
     8ca:	80 e0       	ldi	r24, 0x00	; 0
     8cc:	90 e0       	ldi	r25, 0x00	; 0
     8ce:	ad de       	rcall	.-678    	; 0x62a <uart_init>
   twi_init(400000);
     8d0:	60 e8       	ldi	r22, 0x80	; 128
     8d2:	7a e1       	ldi	r23, 0x1A	; 26
     8d4:	86 e0       	ldi	r24, 0x06	; 6
     8d6:	90 e0       	ldi	r25, 0x00	; 0
     8d8:	43 de       	rcall	.-890    	; 0x560 <twi_init>
   //char char_array[128]="\0";
   
   //DDRC = 255;
   set_pin_dir(&vfd_reset , PORT_DIR_OUT);	set_pin_level(&vfd_reset , false);
     8da:	61 e0       	ldi	r22, 0x01	; 1
     8dc:	85 ea       	ldi	r24, 0xA5	; 165
     8de:	90 e0       	ldi	r25, 0x00	; 0
     8e0:	e7 db       	rcall	.-2098   	; 0xb0 <set_pin_dir>
     8e2:	60 e0       	ldi	r22, 0x00	; 0
     8e4:	85 ea       	ldi	r24, 0xA5	; 165
     8e6:	90 e0       	ldi	r25, 0x00	; 0
     8e8:	ba db       	rcall	.-2188   	; 0x5e <set_pin_level>
   set_pin_dir(&vfd_cs , PORT_DIR_OUT);		set_pin_level(&vfd_cs , true);
     8ea:	61 e0       	ldi	r22, 0x01	; 1
     8ec:	82 ea       	ldi	r24, 0xA2	; 162
     8ee:	90 e0       	ldi	r25, 0x00	; 0
     8f0:	df db       	rcall	.-2114   	; 0xb0 <set_pin_dir>
     8f2:	61 e0       	ldi	r22, 0x01	; 1
     8f4:	82 ea       	ldi	r24, 0xA2	; 162
     8f6:	90 e0       	ldi	r25, 0x00	; 0
     8f8:	b2 db       	rcall	.-2204   	; 0x5e <set_pin_level>
   set_pin_dir(&vfd_stb , PORT_DIR_OUT);	set_pin_level(&vfd_stb , false);
     8fa:	61 e0       	ldi	r22, 0x01	; 1
     8fc:	8f e9       	ldi	r24, 0x9F	; 159
     8fe:	90 e0       	ldi	r25, 0x00	; 0
     900:	d7 db       	rcall	.-2130   	; 0xb0 <set_pin_dir>
     902:	60 e0       	ldi	r22, 0x00	; 0
     904:	8f e9       	ldi	r24, 0x9F	; 159
     906:	90 e0       	ldi	r25, 0x00	; 0
     908:	aa db       	rcall	.-2220   	; 0x5e <set_pin_level>
   set_pin_dir(&vfd_mosi , PORT_DIR_OUT);	set_pin_level(&vfd_mosi , false);
     90a:	61 e0       	ldi	r22, 0x01	; 1
     90c:	8c e9       	ldi	r24, 0x9C	; 156
     90e:	90 e0       	ldi	r25, 0x00	; 0
     910:	cf db       	rcall	.-2146   	; 0xb0 <set_pin_dir>
     912:	60 e0       	ldi	r22, 0x00	; 0
     914:	8c e9       	ldi	r24, 0x9C	; 156
     916:	90 e0       	ldi	r25, 0x00	; 0
     918:	a2 db       	rcall	.-2236   	; 0x5e <set_pin_level>
   set_pin_dir(&vfd_clk , PORT_DIR_OUT);	set_pin_level(&vfd_clk , true);
     91a:	61 e0       	ldi	r22, 0x01	; 1
     91c:	89 e9       	ldi	r24, 0x99	; 153
     91e:	90 e0       	ldi	r25, 0x00	; 0
     920:	c7 db       	rcall	.-2162   	; 0xb0 <set_pin_dir>
     922:	61 e0       	ldi	r22, 0x01	; 1
     924:	89 e9       	ldi	r24, 0x99	; 153
     926:	90 e0       	ldi	r25, 0x00	; 0
     928:	9a db       	rcall	.-2252   	; 0x5e <set_pin_level>
   set_pin_dir(&vfd_40v , PORT_DIR_OUT);	set_pin_level(&vfd_40v , true);
     92a:	61 e0       	ldi	r22, 0x01	; 1
     92c:	86 e9       	ldi	r24, 0x96	; 150
     92e:	90 e0       	ldi	r25, 0x00	; 0
     930:	bf db       	rcall	.-2178   	; 0xb0 <set_pin_dir>
     932:	61 e0       	ldi	r22, 0x01	; 1
     934:	86 e9       	ldi	r24, 0x96	; 150
     936:	90 e0       	ldi	r25, 0x00	; 0
     938:	92 db       	rcall	.-2268   	; 0x5e <set_pin_level>
     93a:	2f ef       	ldi	r18, 0xFF	; 255
     93c:	89 e6       	ldi	r24, 0x69	; 105
     93e:	98 e1       	ldi	r25, 0x18	; 24
     940:	21 50       	subi	r18, 0x01	; 1
     942:	80 40       	sbci	r24, 0x00	; 0
     944:	90 40       	sbci	r25, 0x00	; 0
     946:	e1 f7       	brne	.-8      	; 0x940 <main+0x7e>
     948:	00 c0       	rjmp	.+0      	; 0x94a <main+0x88>
     94a:	00 00       	nop
   _delay_ms(500);
   timer1_init(0);
     94c:	80 e0       	ldi	r24, 0x00	; 0
     94e:	90 e0       	ldi	r25, 0x00	; 0
     950:	b9 dc       	rcall	.-1678   	; 0x2c4 <timer1_init>
   uint8_t blink_divider = 0;
   rtc_set(&sys_rtc);
     952:	84 e6       	ldi	r24, 0x64	; 100
     954:	90 e0       	ldi	r25, 0x00	; 0
     956:	68 dc       	rcall	.-1840   	; 0x228 <rtc_set>
   rtc_int_enable(&sys_rtc ,0);
     958:	60 e0       	ldi	r22, 0x00	; 0
     95a:	70 e0       	ldi	r23, 0x00	; 0
     95c:	84 e6       	ldi	r24, 0x64	; 100
     95e:	90 e0       	ldi	r25, 0x00	; 0
     960:	e9 db       	rcall	.-2094   	; 0x134 <rtc_int_enable>
   
   
   
   vfd_init();
     962:	5e df       	rcall	.-324    	; 0x820 <vfd_init>
   vfd_set_cursor(1,0);
     964:	60 e0       	ldi	r22, 0x00	; 0
     966:	81 e0       	ldi	r24, 0x01	; 1
     968:	87 df       	rcall	.-242    	; 0x878 <vfd_set_cursor>
   vfd_string((uint8_t *)"github.com/vanyap1");
     96a:	8b eb       	ldi	r24, 0xBB	; 187
     96c:	90 e0       	ldi	r25, 0x00	; 0
     96e:	91 df       	rcall	.-222    	; 0x892 <vfd_string>
   vfd_set_cursor(2,0);
     970:	60 e0       	ldi	r22, 0x00	; 0
     972:	82 e0       	ldi	r24, 0x02	; 2
     974:	81 df       	rcall	.-254    	; 0x878 <vfd_set_cursor>
   vfd_string((uint8_t *)"baud:38400 > Enjoy:)");
     976:	8e ec       	ldi	r24, 0xCE	; 206
     978:	90 e0       	ldi	r25, 0x00	; 0
     97a:	8b df       	rcall	.-234    	; 0x892 <vfd_string>
     97c:	2f ef       	ldi	r18, 0xFF	; 255
     97e:	85 ee       	ldi	r24, 0xE5	; 229
     980:	9a ea       	ldi	r25, 0xAA	; 170
     982:	21 50       	subi	r18, 0x01	; 1
     984:	80 40       	sbci	r24, 0x00	; 0
     986:	90 40       	sbci	r25, 0x00	; 0
     988:	e1 f7       	brne	.-8      	; 0x982 <main+0xc0>
     98a:	00 c0       	rjmp	.+0      	; 0x98c <main+0xca>
     98c:	00 00       	nop




int main(void)
{
     98e:	c0 e0       	ldi	r28, 0x00	; 0
   {


	//Next feature is screen brightness control.
	
	if (serial_complete()){
     990:	fb dd       	rcall	.-1034   	; 0x588 <serial_complete>
     992:	88 23       	and	r24, r24
     994:	a1 f1       	breq	.+104    	; 0x9fe <main+0x13c>
		const char *data_p = serial_read_data();
     996:	fb dd       	rcall	.-1034   	; 0x58e <serial_read_data>
     998:	8c 01       	movw	r16, r24
		rtc_sync(&newDate);
     99a:	85 e3       	ldi	r24, 0x35	; 53
     99c:	92 e0       	ldi	r25, 0x02	; 2
     99e:	f5 db       	rcall	.-2070   	; 0x18a <rtc_sync>
		uint8_t res = parseString(data_p, &vfd, &newDate);
     9a0:	45 e3       	ldi	r20, 0x35	; 53
     9a2:	52 e0       	ldi	r21, 0x02	; 2
     9a4:	6c e6       	ldi	r22, 0x6C	; 108
     9a6:	70 e0       	ldi	r23, 0x00	; 0
     9a8:	c8 01       	movw	r24, r16
     9aa:	6a de       	rcall	.-812    	; 0x680 <parseString>
		
		switch (res) {
     9ac:	82 30       	cpi	r24, 0x02	; 2
     9ae:	69 f0       	breq	.+26     	; 0x9ca <main+0x108>
     9b0:	18 f4       	brcc	.+6      	; 0x9b8 <main+0xf6>
     9b2:	81 30       	cpi	r24, 0x01	; 1
     9b4:	31 f0       	breq	.+12     	; 0x9c2 <main+0x100>
     9b6:	23 c0       	rjmp	.+70     	; 0x9fe <main+0x13c>
     9b8:	83 30       	cpi	r24, 0x03	; 3
     9ba:	59 f0       	breq	.+22     	; 0x9d2 <main+0x110>
     9bc:	84 30       	cpi	r24, 0x04	; 4
     9be:	b1 f0       	breq	.+44     	; 0x9ec <main+0x12a>
     9c0:	1e c0       	rjmp	.+60     	; 0x9fe <main+0x13c>
			case TIME_SYNC_REQUEST:							//Time synchronization request handler
			rtc_set(&newDate);
     9c2:	85 e3       	ldi	r24, 0x35	; 53
     9c4:	92 e0       	ldi	r25, 0x02	; 2
     9c6:	30 dc       	rcall	.-1952   	; 0x228 <rtc_set>
			break;
     9c8:	1a c0       	rjmp	.+52     	; 0x9fe <main+0x13c>

			case DATE_SYNC_REQUEST:							//Date synchronization request handler
			rtc_set(&newDate);
     9ca:	85 e3       	ldi	r24, 0x35	; 53
     9cc:	92 e0       	ldi	r25, 0x02	; 2
     9ce:	2c dc       	rcall	.-1960   	; 0x228 <rtc_set>
			break;
     9d0:	16 c0       	rjmp	.+44     	; 0x9fe <main+0x13c>
			
			case TEXT_SYNC_REQUEST:							//Write PC message
				vfd_set_cursor(2,0);
     9d2:	60 e0       	ldi	r22, 0x00	; 0
     9d4:	82 e0       	ldi	r24, 0x02	; 2
     9d6:	50 df       	rcall	.-352    	; 0x878 <vfd_set_cursor>
				vfd_string((uint8_t *)"                    "); //Clear before draw new line
     9d8:	83 ee       	ldi	r24, 0xE3	; 227
     9da:	90 e0       	ldi	r25, 0x00	; 0
     9dc:	5a df       	rcall	.-332    	; 0x892 <vfd_string>
				vfd_set_cursor(2,0);
     9de:	60 e0       	ldi	r22, 0x00	; 0
     9e0:	82 e0       	ldi	r24, 0x02	; 2
     9e2:	4a df       	rcall	.-364    	; 0x878 <vfd_set_cursor>
				vfd_string((uint8_t *)vfd.second_line);
     9e4:	81 e8       	ldi	r24, 0x81	; 129
     9e6:	90 e0       	ldi	r25, 0x00	; 0
     9e8:	54 df       	rcall	.-344    	; 0x892 <vfd_string>
			break;
     9ea:	09 c0       	rjmp	.+18     	; 0x9fe <main+0x13c>

			case ERROR_SYNC_REQUEST:						
			sprintf(vfd.second_line, "!!! data parse error");
     9ec:	85 e1       	ldi	r24, 0x15	; 21
     9ee:	e9 e1       	ldi	r30, 0x19	; 25
     9f0:	f1 e0       	ldi	r31, 0x01	; 1
     9f2:	a1 e8       	ldi	r26, 0x81	; 129
     9f4:	b0 e0       	ldi	r27, 0x00	; 0
     9f6:	01 90       	ld	r0, Z+
     9f8:	0d 92       	st	X+, r0
     9fa:	8a 95       	dec	r24
     9fc:	e1 f7       	brne	.-8      	; 0x9f6 <main+0x134>
     9fe:	2f e7       	ldi	r18, 0x7F	; 127
     a00:	88 e3       	ldi	r24, 0x38	; 56
     a02:	91 e0       	ldi	r25, 0x01	; 1
     a04:	21 50       	subi	r18, 0x01	; 1
     a06:	80 40       	sbci	r24, 0x00	; 0
     a08:	90 40       	sbci	r25, 0x00	; 0
     a0a:	e1 f7       	brne	.-8      	; 0xa04 <main+0x142>
     a0c:	00 c0       	rjmp	.+0      	; 0xa0e <main+0x14c>
     a0e:	00 00       	nop




	_delay_ms(25);
	blink_divider++;
     a10:	cf 5f       	subi	r28, 0xFF	; 255
	if (blink_divider >= 15){
     a12:	cf 30       	cpi	r28, 0x0F	; 15
     a14:	08 f4       	brcc	.+2      	; 0xa18 <main+0x156>
     a16:	bc cf       	rjmp	.-136    	; 0x990 <main+0xce>
		rtc_sync(&sys_rtc);
     a18:	84 e6       	ldi	r24, 0x64	; 100
     a1a:	90 e0       	ldi	r25, 0x00	; 0
     a1c:	b6 db       	rcall	.-2196   	; 0x18a <rtc_sync>
		sprintf(vfd.first_line, "%02d:%02d:%02d  %02d-%02d-20%02d", sys_rtc.hour, sys_rtc.minute, sys_rtc.second, sys_rtc.date, sys_rtc.month, sys_rtc.year);
     a1e:	e4 e6       	ldi	r30, 0x64	; 100
     a20:	f0 e0       	ldi	r31, 0x00	; 0
     a22:	44 81       	ldd	r20, Z+4	; 0x04
     a24:	33 81       	ldd	r19, Z+3	; 0x03
     a26:	20 81       	ld	r18, Z
     a28:	91 81       	ldd	r25, Z+1	; 0x01
     a2a:	82 81       	ldd	r24, Z+2	; 0x02
     a2c:	56 81       	ldd	r21, Z+6	; 0x06
     a2e:	5f 93       	push	r21
     a30:	55 81       	ldd	r21, Z+5	; 0x05
     a32:	5f 93       	push	r21
     a34:	1f 92       	push	r1
     a36:	4f 93       	push	r20
     a38:	1f 92       	push	r1
     a3a:	3f 93       	push	r19
     a3c:	1f 92       	push	r1
     a3e:	2f 93       	push	r18
     a40:	1f 92       	push	r1
     a42:	9f 93       	push	r25
     a44:	1f 92       	push	r1
     a46:	8f 93       	push	r24
     a48:	88 ef       	ldi	r24, 0xF8	; 248
     a4a:	90 e0       	ldi	r25, 0x00	; 0
     a4c:	9f 93       	push	r25
     a4e:	8f 93       	push	r24
     a50:	8c e6       	ldi	r24, 0x6C	; 108
     a52:	90 e0       	ldi	r25, 0x00	; 0
     a54:	9f 93       	push	r25
     a56:	8f 93       	push	r24
     a58:	b4 d0       	rcall	.+360    	; 0xbc2 <sprintf>
		
		blink_divider = 0;
		vfd_set_cursor(1,0);
     a5a:	60 e0       	ldi	r22, 0x00	; 0
     a5c:	81 e0       	ldi	r24, 0x01	; 1
     a5e:	0c df       	rcall	.-488    	; 0x878 <vfd_set_cursor>
		vfd_string((uint8_t *)vfd.first_line);
     a60:	8c e6       	ldi	r24, 0x6C	; 108
     a62:	90 e0       	ldi	r25, 0x00	; 0
     a64:	16 df       	rcall	.-468    	; 0x892 <vfd_string>
     a66:	8d b7       	in	r24, 0x3d	; 61
     a68:	9e b7       	in	r25, 0x3e	; 62
     a6a:	40 96       	adiw	r24, 0x10	; 16
     a6c:	0f b6       	in	r0, 0x3f	; 63
     a6e:	f8 94       	cli
     a70:	9e bf       	out	0x3e, r25	; 62
     a72:	0f be       	out	0x3f, r0	; 63
     a74:	8d bf       	out	0x3d, r24	; 61
     a76:	8b cf       	rjmp	.-234    	; 0x98e <main+0xcc>

00000a78 <__udivmodsi4>:
     a78:	a1 e2       	ldi	r26, 0x21	; 33
     a7a:	1a 2e       	mov	r1, r26
     a7c:	aa 1b       	sub	r26, r26
     a7e:	bb 1b       	sub	r27, r27
     a80:	fd 01       	movw	r30, r26
     a82:	0d c0       	rjmp	.+26     	; 0xa9e <__udivmodsi4_ep>

00000a84 <__udivmodsi4_loop>:
     a84:	aa 1f       	adc	r26, r26
     a86:	bb 1f       	adc	r27, r27
     a88:	ee 1f       	adc	r30, r30
     a8a:	ff 1f       	adc	r31, r31
     a8c:	a2 17       	cp	r26, r18
     a8e:	b3 07       	cpc	r27, r19
     a90:	e4 07       	cpc	r30, r20
     a92:	f5 07       	cpc	r31, r21
     a94:	20 f0       	brcs	.+8      	; 0xa9e <__udivmodsi4_ep>
     a96:	a2 1b       	sub	r26, r18
     a98:	b3 0b       	sbc	r27, r19
     a9a:	e4 0b       	sbc	r30, r20
     a9c:	f5 0b       	sbc	r31, r21

00000a9e <__udivmodsi4_ep>:
     a9e:	66 1f       	adc	r22, r22
     aa0:	77 1f       	adc	r23, r23
     aa2:	88 1f       	adc	r24, r24
     aa4:	99 1f       	adc	r25, r25
     aa6:	1a 94       	dec	r1
     aa8:	69 f7       	brne	.-38     	; 0xa84 <__udivmodsi4_loop>
     aaa:	60 95       	com	r22
     aac:	70 95       	com	r23
     aae:	80 95       	com	r24
     ab0:	90 95       	com	r25
     ab2:	9b 01       	movw	r18, r22
     ab4:	ac 01       	movw	r20, r24
     ab6:	bd 01       	movw	r22, r26
     ab8:	cf 01       	movw	r24, r30
     aba:	08 95       	ret

00000abc <__muluhisi3>:
     abc:	09 d0       	rcall	.+18     	; 0xad0 <__umulhisi3>
     abe:	a5 9f       	mul	r26, r21
     ac0:	90 0d       	add	r25, r0
     ac2:	b4 9f       	mul	r27, r20
     ac4:	90 0d       	add	r25, r0
     ac6:	a4 9f       	mul	r26, r20
     ac8:	80 0d       	add	r24, r0
     aca:	91 1d       	adc	r25, r1
     acc:	11 24       	eor	r1, r1
     ace:	08 95       	ret

00000ad0 <__umulhisi3>:
     ad0:	a2 9f       	mul	r26, r18
     ad2:	b0 01       	movw	r22, r0
     ad4:	b3 9f       	mul	r27, r19
     ad6:	c0 01       	movw	r24, r0
     ad8:	a3 9f       	mul	r26, r19
     ada:	01 d0       	rcall	.+2      	; 0xade <__umulhisi3+0xe>
     adc:	b2 9f       	mul	r27, r18
     ade:	70 0d       	add	r23, r0
     ae0:	81 1d       	adc	r24, r1
     ae2:	11 24       	eor	r1, r1
     ae4:	91 1d       	adc	r25, r1
     ae6:	08 95       	ret

00000ae8 <atoi>:
     ae8:	fc 01       	movw	r30, r24
     aea:	88 27       	eor	r24, r24
     aec:	99 27       	eor	r25, r25
     aee:	e8 94       	clt
     af0:	21 91       	ld	r18, Z+
     af2:	20 32       	cpi	r18, 0x20	; 32
     af4:	e9 f3       	breq	.-6      	; 0xaf0 <atoi+0x8>
     af6:	29 30       	cpi	r18, 0x09	; 9
     af8:	10 f0       	brcs	.+4      	; 0xafe <atoi+0x16>
     afa:	2e 30       	cpi	r18, 0x0E	; 14
     afc:	c8 f3       	brcs	.-14     	; 0xaf0 <atoi+0x8>
     afe:	2b 32       	cpi	r18, 0x2B	; 43
     b00:	39 f0       	breq	.+14     	; 0xb10 <atoi+0x28>
     b02:	2d 32       	cpi	r18, 0x2D	; 45
     b04:	31 f4       	brne	.+12     	; 0xb12 <atoi+0x2a>
     b06:	68 94       	set
     b08:	03 c0       	rjmp	.+6      	; 0xb10 <atoi+0x28>
     b0a:	53 d0       	rcall	.+166    	; 0xbb2 <__mulhi_const_10>
     b0c:	82 0f       	add	r24, r18
     b0e:	91 1d       	adc	r25, r1
     b10:	21 91       	ld	r18, Z+
     b12:	20 53       	subi	r18, 0x30	; 48
     b14:	2a 30       	cpi	r18, 0x0A	; 10
     b16:	c8 f3       	brcs	.-14     	; 0xb0a <atoi+0x22>
     b18:	1e f4       	brtc	.+6      	; 0xb20 <atoi+0x38>
     b1a:	90 95       	com	r25
     b1c:	81 95       	neg	r24
     b1e:	9f 4f       	sbci	r25, 0xFF	; 255
     b20:	08 95       	ret

00000b22 <strtok>:
     b22:	4e e2       	ldi	r20, 0x2E	; 46
     b24:	51 e0       	ldi	r21, 0x01	; 1
     b26:	1e d0       	rcall	.+60     	; 0xb64 <strtok_r>
     b28:	08 95       	ret

00000b2a <strncmp>:
     b2a:	fb 01       	movw	r30, r22
     b2c:	dc 01       	movw	r26, r24
     b2e:	41 50       	subi	r20, 0x01	; 1
     b30:	50 40       	sbci	r21, 0x00	; 0
     b32:	30 f0       	brcs	.+12     	; 0xb40 <strncmp+0x16>
     b34:	8d 91       	ld	r24, X+
     b36:	01 90       	ld	r0, Z+
     b38:	80 19       	sub	r24, r0
     b3a:	19 f4       	brne	.+6      	; 0xb42 <strncmp+0x18>
     b3c:	00 20       	and	r0, r0
     b3e:	b9 f7       	brne	.-18     	; 0xb2e <strncmp+0x4>
     b40:	88 1b       	sub	r24, r24
     b42:	99 0b       	sbc	r25, r25
     b44:	08 95       	ret

00000b46 <strncpy>:
     b46:	fb 01       	movw	r30, r22
     b48:	dc 01       	movw	r26, r24
     b4a:	41 50       	subi	r20, 0x01	; 1
     b4c:	50 40       	sbci	r21, 0x00	; 0
     b4e:	48 f0       	brcs	.+18     	; 0xb62 <strncpy+0x1c>
     b50:	01 90       	ld	r0, Z+
     b52:	0d 92       	st	X+, r0
     b54:	00 20       	and	r0, r0
     b56:	c9 f7       	brne	.-14     	; 0xb4a <strncpy+0x4>
     b58:	01 c0       	rjmp	.+2      	; 0xb5c <strncpy+0x16>
     b5a:	1d 92       	st	X+, r1
     b5c:	41 50       	subi	r20, 0x01	; 1
     b5e:	50 40       	sbci	r21, 0x00	; 0
     b60:	e0 f7       	brcc	.-8      	; 0xb5a <strncpy+0x14>
     b62:	08 95       	ret

00000b64 <strtok_r>:
     b64:	fa 01       	movw	r30, r20
     b66:	a1 91       	ld	r26, Z+
     b68:	b0 81       	ld	r27, Z
     b6a:	00 97       	sbiw	r24, 0x00	; 0
     b6c:	19 f4       	brne	.+6      	; 0xb74 <strtok_r+0x10>
     b6e:	10 97       	sbiw	r26, 0x00	; 0
     b70:	e1 f0       	breq	.+56     	; 0xbaa <strtok_r+0x46>
     b72:	cd 01       	movw	r24, r26
     b74:	dc 01       	movw	r26, r24
     b76:	cd 01       	movw	r24, r26
     b78:	0d 90       	ld	r0, X+
     b7a:	00 20       	and	r0, r0
     b7c:	11 f4       	brne	.+4      	; 0xb82 <strtok_r+0x1e>
     b7e:	c0 01       	movw	r24, r0
     b80:	13 c0       	rjmp	.+38     	; 0xba8 <strtok_r+0x44>
     b82:	fb 01       	movw	r30, r22
     b84:	21 91       	ld	r18, Z+
     b86:	22 23       	and	r18, r18
     b88:	19 f0       	breq	.+6      	; 0xb90 <strtok_r+0x2c>
     b8a:	20 15       	cp	r18, r0
     b8c:	d9 f7       	brne	.-10     	; 0xb84 <strtok_r+0x20>
     b8e:	f3 cf       	rjmp	.-26     	; 0xb76 <strtok_r+0x12>
     b90:	fb 01       	movw	r30, r22
     b92:	21 91       	ld	r18, Z+
     b94:	20 15       	cp	r18, r0
     b96:	19 f4       	brne	.+6      	; 0xb9e <strtok_r+0x3a>
     b98:	1e 92       	st	-X, r1
     b9a:	11 96       	adiw	r26, 0x01	; 1
     b9c:	06 c0       	rjmp	.+12     	; 0xbaa <strtok_r+0x46>
     b9e:	22 23       	and	r18, r18
     ba0:	c1 f7       	brne	.-16     	; 0xb92 <strtok_r+0x2e>
     ba2:	0d 90       	ld	r0, X+
     ba4:	00 20       	and	r0, r0
     ba6:	a1 f7       	brne	.-24     	; 0xb90 <strtok_r+0x2c>
     ba8:	d0 01       	movw	r26, r0
     baa:	fa 01       	movw	r30, r20
     bac:	a1 93       	st	Z+, r26
     bae:	b0 83       	st	Z, r27
     bb0:	08 95       	ret

00000bb2 <__mulhi_const_10>:
     bb2:	7a e0       	ldi	r23, 0x0A	; 10
     bb4:	97 9f       	mul	r25, r23
     bb6:	90 2d       	mov	r25, r0
     bb8:	87 9f       	mul	r24, r23
     bba:	80 2d       	mov	r24, r0
     bbc:	91 0d       	add	r25, r1
     bbe:	11 24       	eor	r1, r1
     bc0:	08 95       	ret

00000bc2 <sprintf>:
     bc2:	ae e0       	ldi	r26, 0x0E	; 14
     bc4:	b0 e0       	ldi	r27, 0x00	; 0
     bc6:	e6 ee       	ldi	r30, 0xE6	; 230
     bc8:	f5 e0       	ldi	r31, 0x05	; 5
     bca:	aa c2       	rjmp	.+1364   	; 0x1120 <__prologue_saves__+0x1c>
     bcc:	0d 89       	ldd	r16, Y+21	; 0x15
     bce:	1e 89       	ldd	r17, Y+22	; 0x16
     bd0:	86 e0       	ldi	r24, 0x06	; 6
     bd2:	8c 83       	std	Y+4, r24	; 0x04
     bd4:	1a 83       	std	Y+2, r17	; 0x02
     bd6:	09 83       	std	Y+1, r16	; 0x01
     bd8:	8f ef       	ldi	r24, 0xFF	; 255
     bda:	9f e7       	ldi	r25, 0x7F	; 127
     bdc:	9e 83       	std	Y+6, r25	; 0x06
     bde:	8d 83       	std	Y+5, r24	; 0x05
     be0:	ae 01       	movw	r20, r28
     be2:	47 5e       	subi	r20, 0xE7	; 231
     be4:	5f 4f       	sbci	r21, 0xFF	; 255
     be6:	6f 89       	ldd	r22, Y+23	; 0x17
     be8:	78 8d       	ldd	r23, Y+24	; 0x18
     bea:	ce 01       	movw	r24, r28
     bec:	01 96       	adiw	r24, 0x01	; 1
     bee:	08 d0       	rcall	.+16     	; 0xc00 <vfprintf>
     bf0:	ef 81       	ldd	r30, Y+7	; 0x07
     bf2:	f8 85       	ldd	r31, Y+8	; 0x08
     bf4:	e0 0f       	add	r30, r16
     bf6:	f1 1f       	adc	r31, r17
     bf8:	10 82       	st	Z, r1
     bfa:	2e 96       	adiw	r28, 0x0e	; 14
     bfc:	e4 e0       	ldi	r30, 0x04	; 4
     bfe:	ac c2       	rjmp	.+1368   	; 0x1158 <__epilogue_restores__+0x1c>

00000c00 <vfprintf>:
     c00:	ab e0       	ldi	r26, 0x0B	; 11
     c02:	b0 e0       	ldi	r27, 0x00	; 0
     c04:	e5 e0       	ldi	r30, 0x05	; 5
     c06:	f6 e0       	ldi	r31, 0x06	; 6
     c08:	7d c2       	rjmp	.+1274   	; 0x1104 <__prologue_saves__>
     c0a:	6c 01       	movw	r12, r24
     c0c:	7b 01       	movw	r14, r22
     c0e:	8a 01       	movw	r16, r20
     c10:	fc 01       	movw	r30, r24
     c12:	17 82       	std	Z+7, r1	; 0x07
     c14:	16 82       	std	Z+6, r1	; 0x06
     c16:	83 81       	ldd	r24, Z+3	; 0x03
     c18:	81 ff       	sbrs	r24, 1
     c1a:	bf c1       	rjmp	.+894    	; 0xf9a <vfprintf+0x39a>
     c1c:	ce 01       	movw	r24, r28
     c1e:	01 96       	adiw	r24, 0x01	; 1
     c20:	3c 01       	movw	r6, r24
     c22:	f6 01       	movw	r30, r12
     c24:	93 81       	ldd	r25, Z+3	; 0x03
     c26:	f7 01       	movw	r30, r14
     c28:	93 fd       	sbrc	r25, 3
     c2a:	85 91       	lpm	r24, Z+
     c2c:	93 ff       	sbrs	r25, 3
     c2e:	81 91       	ld	r24, Z+
     c30:	7f 01       	movw	r14, r30
     c32:	88 23       	and	r24, r24
     c34:	09 f4       	brne	.+2      	; 0xc38 <vfprintf+0x38>
     c36:	ad c1       	rjmp	.+858    	; 0xf92 <vfprintf+0x392>
     c38:	85 32       	cpi	r24, 0x25	; 37
     c3a:	39 f4       	brne	.+14     	; 0xc4a <vfprintf+0x4a>
     c3c:	93 fd       	sbrc	r25, 3
     c3e:	85 91       	lpm	r24, Z+
     c40:	93 ff       	sbrs	r25, 3
     c42:	81 91       	ld	r24, Z+
     c44:	7f 01       	movw	r14, r30
     c46:	85 32       	cpi	r24, 0x25	; 37
     c48:	21 f4       	brne	.+8      	; 0xc52 <vfprintf+0x52>
     c4a:	b6 01       	movw	r22, r12
     c4c:	90 e0       	ldi	r25, 0x00	; 0
     c4e:	c0 d1       	rcall	.+896    	; 0xfd0 <fputc>
     c50:	e8 cf       	rjmp	.-48     	; 0xc22 <vfprintf+0x22>
     c52:	91 2c       	mov	r9, r1
     c54:	21 2c       	mov	r2, r1
     c56:	31 2c       	mov	r3, r1
     c58:	ff e1       	ldi	r31, 0x1F	; 31
     c5a:	f3 15       	cp	r31, r3
     c5c:	d8 f0       	brcs	.+54     	; 0xc94 <vfprintf+0x94>
     c5e:	8b 32       	cpi	r24, 0x2B	; 43
     c60:	79 f0       	breq	.+30     	; 0xc80 <vfprintf+0x80>
     c62:	38 f4       	brcc	.+14     	; 0xc72 <vfprintf+0x72>
     c64:	80 32       	cpi	r24, 0x20	; 32
     c66:	79 f0       	breq	.+30     	; 0xc86 <vfprintf+0x86>
     c68:	83 32       	cpi	r24, 0x23	; 35
     c6a:	a1 f4       	brne	.+40     	; 0xc94 <vfprintf+0x94>
     c6c:	23 2d       	mov	r18, r3
     c6e:	20 61       	ori	r18, 0x10	; 16
     c70:	1d c0       	rjmp	.+58     	; 0xcac <vfprintf+0xac>
     c72:	8d 32       	cpi	r24, 0x2D	; 45
     c74:	61 f0       	breq	.+24     	; 0xc8e <vfprintf+0x8e>
     c76:	80 33       	cpi	r24, 0x30	; 48
     c78:	69 f4       	brne	.+26     	; 0xc94 <vfprintf+0x94>
     c7a:	23 2d       	mov	r18, r3
     c7c:	21 60       	ori	r18, 0x01	; 1
     c7e:	16 c0       	rjmp	.+44     	; 0xcac <vfprintf+0xac>
     c80:	83 2d       	mov	r24, r3
     c82:	82 60       	ori	r24, 0x02	; 2
     c84:	38 2e       	mov	r3, r24
     c86:	e3 2d       	mov	r30, r3
     c88:	e4 60       	ori	r30, 0x04	; 4
     c8a:	3e 2e       	mov	r3, r30
     c8c:	2a c0       	rjmp	.+84     	; 0xce2 <vfprintf+0xe2>
     c8e:	f3 2d       	mov	r31, r3
     c90:	f8 60       	ori	r31, 0x08	; 8
     c92:	1d c0       	rjmp	.+58     	; 0xcce <vfprintf+0xce>
     c94:	37 fc       	sbrc	r3, 7
     c96:	2d c0       	rjmp	.+90     	; 0xcf2 <vfprintf+0xf2>
     c98:	20 ed       	ldi	r18, 0xD0	; 208
     c9a:	28 0f       	add	r18, r24
     c9c:	2a 30       	cpi	r18, 0x0A	; 10
     c9e:	40 f0       	brcs	.+16     	; 0xcb0 <vfprintf+0xb0>
     ca0:	8e 32       	cpi	r24, 0x2E	; 46
     ca2:	b9 f4       	brne	.+46     	; 0xcd2 <vfprintf+0xd2>
     ca4:	36 fc       	sbrc	r3, 6
     ca6:	75 c1       	rjmp	.+746    	; 0xf92 <vfprintf+0x392>
     ca8:	23 2d       	mov	r18, r3
     caa:	20 64       	ori	r18, 0x40	; 64
     cac:	32 2e       	mov	r3, r18
     cae:	19 c0       	rjmp	.+50     	; 0xce2 <vfprintf+0xe2>
     cb0:	36 fe       	sbrs	r3, 6
     cb2:	06 c0       	rjmp	.+12     	; 0xcc0 <vfprintf+0xc0>
     cb4:	8a e0       	ldi	r24, 0x0A	; 10
     cb6:	98 9e       	mul	r9, r24
     cb8:	20 0d       	add	r18, r0
     cba:	11 24       	eor	r1, r1
     cbc:	92 2e       	mov	r9, r18
     cbe:	11 c0       	rjmp	.+34     	; 0xce2 <vfprintf+0xe2>
     cc0:	ea e0       	ldi	r30, 0x0A	; 10
     cc2:	2e 9e       	mul	r2, r30
     cc4:	20 0d       	add	r18, r0
     cc6:	11 24       	eor	r1, r1
     cc8:	22 2e       	mov	r2, r18
     cca:	f3 2d       	mov	r31, r3
     ccc:	f0 62       	ori	r31, 0x20	; 32
     cce:	3f 2e       	mov	r3, r31
     cd0:	08 c0       	rjmp	.+16     	; 0xce2 <vfprintf+0xe2>
     cd2:	8c 36       	cpi	r24, 0x6C	; 108
     cd4:	21 f4       	brne	.+8      	; 0xcde <vfprintf+0xde>
     cd6:	83 2d       	mov	r24, r3
     cd8:	80 68       	ori	r24, 0x80	; 128
     cda:	38 2e       	mov	r3, r24
     cdc:	02 c0       	rjmp	.+4      	; 0xce2 <vfprintf+0xe2>
     cde:	88 36       	cpi	r24, 0x68	; 104
     ce0:	41 f4       	brne	.+16     	; 0xcf2 <vfprintf+0xf2>
     ce2:	f7 01       	movw	r30, r14
     ce4:	93 fd       	sbrc	r25, 3
     ce6:	85 91       	lpm	r24, Z+
     ce8:	93 ff       	sbrs	r25, 3
     cea:	81 91       	ld	r24, Z+
     cec:	7f 01       	movw	r14, r30
     cee:	81 11       	cpse	r24, r1
     cf0:	b3 cf       	rjmp	.-154    	; 0xc58 <vfprintf+0x58>
     cf2:	98 2f       	mov	r25, r24
     cf4:	9f 7d       	andi	r25, 0xDF	; 223
     cf6:	95 54       	subi	r25, 0x45	; 69
     cf8:	93 30       	cpi	r25, 0x03	; 3
     cfa:	28 f4       	brcc	.+10     	; 0xd06 <vfprintf+0x106>
     cfc:	0c 5f       	subi	r16, 0xFC	; 252
     cfe:	1f 4f       	sbci	r17, 0xFF	; 255
     d00:	9f e3       	ldi	r25, 0x3F	; 63
     d02:	99 83       	std	Y+1, r25	; 0x01
     d04:	0d c0       	rjmp	.+26     	; 0xd20 <vfprintf+0x120>
     d06:	83 36       	cpi	r24, 0x63	; 99
     d08:	31 f0       	breq	.+12     	; 0xd16 <vfprintf+0x116>
     d0a:	83 37       	cpi	r24, 0x73	; 115
     d0c:	71 f0       	breq	.+28     	; 0xd2a <vfprintf+0x12a>
     d0e:	83 35       	cpi	r24, 0x53	; 83
     d10:	09 f0       	breq	.+2      	; 0xd14 <vfprintf+0x114>
     d12:	55 c0       	rjmp	.+170    	; 0xdbe <vfprintf+0x1be>
     d14:	20 c0       	rjmp	.+64     	; 0xd56 <vfprintf+0x156>
     d16:	f8 01       	movw	r30, r16
     d18:	80 81       	ld	r24, Z
     d1a:	89 83       	std	Y+1, r24	; 0x01
     d1c:	0e 5f       	subi	r16, 0xFE	; 254
     d1e:	1f 4f       	sbci	r17, 0xFF	; 255
     d20:	88 24       	eor	r8, r8
     d22:	83 94       	inc	r8
     d24:	91 2c       	mov	r9, r1
     d26:	53 01       	movw	r10, r6
     d28:	12 c0       	rjmp	.+36     	; 0xd4e <vfprintf+0x14e>
     d2a:	28 01       	movw	r4, r16
     d2c:	f2 e0       	ldi	r31, 0x02	; 2
     d2e:	4f 0e       	add	r4, r31
     d30:	51 1c       	adc	r5, r1
     d32:	f8 01       	movw	r30, r16
     d34:	a0 80       	ld	r10, Z
     d36:	b1 80       	ldd	r11, Z+1	; 0x01
     d38:	36 fe       	sbrs	r3, 6
     d3a:	03 c0       	rjmp	.+6      	; 0xd42 <vfprintf+0x142>
     d3c:	69 2d       	mov	r22, r9
     d3e:	70 e0       	ldi	r23, 0x00	; 0
     d40:	02 c0       	rjmp	.+4      	; 0xd46 <vfprintf+0x146>
     d42:	6f ef       	ldi	r22, 0xFF	; 255
     d44:	7f ef       	ldi	r23, 0xFF	; 255
     d46:	c5 01       	movw	r24, r10
     d48:	38 d1       	rcall	.+624    	; 0xfba <strnlen>
     d4a:	4c 01       	movw	r8, r24
     d4c:	82 01       	movw	r16, r4
     d4e:	f3 2d       	mov	r31, r3
     d50:	ff 77       	andi	r31, 0x7F	; 127
     d52:	3f 2e       	mov	r3, r31
     d54:	15 c0       	rjmp	.+42     	; 0xd80 <vfprintf+0x180>
     d56:	28 01       	movw	r4, r16
     d58:	22 e0       	ldi	r18, 0x02	; 2
     d5a:	42 0e       	add	r4, r18
     d5c:	51 1c       	adc	r5, r1
     d5e:	f8 01       	movw	r30, r16
     d60:	a0 80       	ld	r10, Z
     d62:	b1 80       	ldd	r11, Z+1	; 0x01
     d64:	36 fe       	sbrs	r3, 6
     d66:	03 c0       	rjmp	.+6      	; 0xd6e <vfprintf+0x16e>
     d68:	69 2d       	mov	r22, r9
     d6a:	70 e0       	ldi	r23, 0x00	; 0
     d6c:	02 c0       	rjmp	.+4      	; 0xd72 <vfprintf+0x172>
     d6e:	6f ef       	ldi	r22, 0xFF	; 255
     d70:	7f ef       	ldi	r23, 0xFF	; 255
     d72:	c5 01       	movw	r24, r10
     d74:	17 d1       	rcall	.+558    	; 0xfa4 <strnlen_P>
     d76:	4c 01       	movw	r8, r24
     d78:	f3 2d       	mov	r31, r3
     d7a:	f0 68       	ori	r31, 0x80	; 128
     d7c:	3f 2e       	mov	r3, r31
     d7e:	82 01       	movw	r16, r4
     d80:	33 fc       	sbrc	r3, 3
     d82:	19 c0       	rjmp	.+50     	; 0xdb6 <vfprintf+0x1b6>
     d84:	82 2d       	mov	r24, r2
     d86:	90 e0       	ldi	r25, 0x00	; 0
     d88:	88 16       	cp	r8, r24
     d8a:	99 06       	cpc	r9, r25
     d8c:	a0 f4       	brcc	.+40     	; 0xdb6 <vfprintf+0x1b6>
     d8e:	b6 01       	movw	r22, r12
     d90:	80 e2       	ldi	r24, 0x20	; 32
     d92:	90 e0       	ldi	r25, 0x00	; 0
     d94:	1d d1       	rcall	.+570    	; 0xfd0 <fputc>
     d96:	2a 94       	dec	r2
     d98:	f5 cf       	rjmp	.-22     	; 0xd84 <vfprintf+0x184>
     d9a:	f5 01       	movw	r30, r10
     d9c:	37 fc       	sbrc	r3, 7
     d9e:	85 91       	lpm	r24, Z+
     da0:	37 fe       	sbrs	r3, 7
     da2:	81 91       	ld	r24, Z+
     da4:	5f 01       	movw	r10, r30
     da6:	b6 01       	movw	r22, r12
     da8:	90 e0       	ldi	r25, 0x00	; 0
     daa:	12 d1       	rcall	.+548    	; 0xfd0 <fputc>
     dac:	21 10       	cpse	r2, r1
     dae:	2a 94       	dec	r2
     db0:	21 e0       	ldi	r18, 0x01	; 1
     db2:	82 1a       	sub	r8, r18
     db4:	91 08       	sbc	r9, r1
     db6:	81 14       	cp	r8, r1
     db8:	91 04       	cpc	r9, r1
     dba:	79 f7       	brne	.-34     	; 0xd9a <vfprintf+0x19a>
     dbc:	e1 c0       	rjmp	.+450    	; 0xf80 <vfprintf+0x380>
     dbe:	84 36       	cpi	r24, 0x64	; 100
     dc0:	11 f0       	breq	.+4      	; 0xdc6 <vfprintf+0x1c6>
     dc2:	89 36       	cpi	r24, 0x69	; 105
     dc4:	39 f5       	brne	.+78     	; 0xe14 <vfprintf+0x214>
     dc6:	f8 01       	movw	r30, r16
     dc8:	37 fe       	sbrs	r3, 7
     dca:	07 c0       	rjmp	.+14     	; 0xdda <vfprintf+0x1da>
     dcc:	60 81       	ld	r22, Z
     dce:	71 81       	ldd	r23, Z+1	; 0x01
     dd0:	82 81       	ldd	r24, Z+2	; 0x02
     dd2:	93 81       	ldd	r25, Z+3	; 0x03
     dd4:	0c 5f       	subi	r16, 0xFC	; 252
     dd6:	1f 4f       	sbci	r17, 0xFF	; 255
     dd8:	08 c0       	rjmp	.+16     	; 0xdea <vfprintf+0x1ea>
     dda:	60 81       	ld	r22, Z
     ddc:	71 81       	ldd	r23, Z+1	; 0x01
     dde:	07 2e       	mov	r0, r23
     de0:	00 0c       	add	r0, r0
     de2:	88 0b       	sbc	r24, r24
     de4:	99 0b       	sbc	r25, r25
     de6:	0e 5f       	subi	r16, 0xFE	; 254
     de8:	1f 4f       	sbci	r17, 0xFF	; 255
     dea:	f3 2d       	mov	r31, r3
     dec:	ff 76       	andi	r31, 0x6F	; 111
     dee:	3f 2e       	mov	r3, r31
     df0:	97 ff       	sbrs	r25, 7
     df2:	09 c0       	rjmp	.+18     	; 0xe06 <vfprintf+0x206>
     df4:	90 95       	com	r25
     df6:	80 95       	com	r24
     df8:	70 95       	com	r23
     dfa:	61 95       	neg	r22
     dfc:	7f 4f       	sbci	r23, 0xFF	; 255
     dfe:	8f 4f       	sbci	r24, 0xFF	; 255
     e00:	9f 4f       	sbci	r25, 0xFF	; 255
     e02:	f0 68       	ori	r31, 0x80	; 128
     e04:	3f 2e       	mov	r3, r31
     e06:	2a e0       	ldi	r18, 0x0A	; 10
     e08:	30 e0       	ldi	r19, 0x00	; 0
     e0a:	a3 01       	movw	r20, r6
     e0c:	1d d1       	rcall	.+570    	; 0x1048 <__ultoa_invert>
     e0e:	88 2e       	mov	r8, r24
     e10:	86 18       	sub	r8, r6
     e12:	44 c0       	rjmp	.+136    	; 0xe9c <vfprintf+0x29c>
     e14:	85 37       	cpi	r24, 0x75	; 117
     e16:	31 f4       	brne	.+12     	; 0xe24 <vfprintf+0x224>
     e18:	23 2d       	mov	r18, r3
     e1a:	2f 7e       	andi	r18, 0xEF	; 239
     e1c:	b2 2e       	mov	r11, r18
     e1e:	2a e0       	ldi	r18, 0x0A	; 10
     e20:	30 e0       	ldi	r19, 0x00	; 0
     e22:	25 c0       	rjmp	.+74     	; 0xe6e <vfprintf+0x26e>
     e24:	93 2d       	mov	r25, r3
     e26:	99 7f       	andi	r25, 0xF9	; 249
     e28:	b9 2e       	mov	r11, r25
     e2a:	8f 36       	cpi	r24, 0x6F	; 111
     e2c:	c1 f0       	breq	.+48     	; 0xe5e <vfprintf+0x25e>
     e2e:	18 f4       	brcc	.+6      	; 0xe36 <vfprintf+0x236>
     e30:	88 35       	cpi	r24, 0x58	; 88
     e32:	79 f0       	breq	.+30     	; 0xe52 <vfprintf+0x252>
     e34:	ae c0       	rjmp	.+348    	; 0xf92 <vfprintf+0x392>
     e36:	80 37       	cpi	r24, 0x70	; 112
     e38:	19 f0       	breq	.+6      	; 0xe40 <vfprintf+0x240>
     e3a:	88 37       	cpi	r24, 0x78	; 120
     e3c:	21 f0       	breq	.+8      	; 0xe46 <vfprintf+0x246>
     e3e:	a9 c0       	rjmp	.+338    	; 0xf92 <vfprintf+0x392>
     e40:	e9 2f       	mov	r30, r25
     e42:	e0 61       	ori	r30, 0x10	; 16
     e44:	be 2e       	mov	r11, r30
     e46:	b4 fe       	sbrs	r11, 4
     e48:	0d c0       	rjmp	.+26     	; 0xe64 <vfprintf+0x264>
     e4a:	fb 2d       	mov	r31, r11
     e4c:	f4 60       	ori	r31, 0x04	; 4
     e4e:	bf 2e       	mov	r11, r31
     e50:	09 c0       	rjmp	.+18     	; 0xe64 <vfprintf+0x264>
     e52:	34 fe       	sbrs	r3, 4
     e54:	0a c0       	rjmp	.+20     	; 0xe6a <vfprintf+0x26a>
     e56:	29 2f       	mov	r18, r25
     e58:	26 60       	ori	r18, 0x06	; 6
     e5a:	b2 2e       	mov	r11, r18
     e5c:	06 c0       	rjmp	.+12     	; 0xe6a <vfprintf+0x26a>
     e5e:	28 e0       	ldi	r18, 0x08	; 8
     e60:	30 e0       	ldi	r19, 0x00	; 0
     e62:	05 c0       	rjmp	.+10     	; 0xe6e <vfprintf+0x26e>
     e64:	20 e1       	ldi	r18, 0x10	; 16
     e66:	30 e0       	ldi	r19, 0x00	; 0
     e68:	02 c0       	rjmp	.+4      	; 0xe6e <vfprintf+0x26e>
     e6a:	20 e1       	ldi	r18, 0x10	; 16
     e6c:	32 e0       	ldi	r19, 0x02	; 2
     e6e:	f8 01       	movw	r30, r16
     e70:	b7 fe       	sbrs	r11, 7
     e72:	07 c0       	rjmp	.+14     	; 0xe82 <vfprintf+0x282>
     e74:	60 81       	ld	r22, Z
     e76:	71 81       	ldd	r23, Z+1	; 0x01
     e78:	82 81       	ldd	r24, Z+2	; 0x02
     e7a:	93 81       	ldd	r25, Z+3	; 0x03
     e7c:	0c 5f       	subi	r16, 0xFC	; 252
     e7e:	1f 4f       	sbci	r17, 0xFF	; 255
     e80:	06 c0       	rjmp	.+12     	; 0xe8e <vfprintf+0x28e>
     e82:	60 81       	ld	r22, Z
     e84:	71 81       	ldd	r23, Z+1	; 0x01
     e86:	80 e0       	ldi	r24, 0x00	; 0
     e88:	90 e0       	ldi	r25, 0x00	; 0
     e8a:	0e 5f       	subi	r16, 0xFE	; 254
     e8c:	1f 4f       	sbci	r17, 0xFF	; 255
     e8e:	a3 01       	movw	r20, r6
     e90:	db d0       	rcall	.+438    	; 0x1048 <__ultoa_invert>
     e92:	88 2e       	mov	r8, r24
     e94:	86 18       	sub	r8, r6
     e96:	fb 2d       	mov	r31, r11
     e98:	ff 77       	andi	r31, 0x7F	; 127
     e9a:	3f 2e       	mov	r3, r31
     e9c:	36 fe       	sbrs	r3, 6
     e9e:	0d c0       	rjmp	.+26     	; 0xeba <vfprintf+0x2ba>
     ea0:	23 2d       	mov	r18, r3
     ea2:	2e 7f       	andi	r18, 0xFE	; 254
     ea4:	a2 2e       	mov	r10, r18
     ea6:	89 14       	cp	r8, r9
     ea8:	58 f4       	brcc	.+22     	; 0xec0 <vfprintf+0x2c0>
     eaa:	34 fe       	sbrs	r3, 4
     eac:	0b c0       	rjmp	.+22     	; 0xec4 <vfprintf+0x2c4>
     eae:	32 fc       	sbrc	r3, 2
     eb0:	09 c0       	rjmp	.+18     	; 0xec4 <vfprintf+0x2c4>
     eb2:	83 2d       	mov	r24, r3
     eb4:	8e 7e       	andi	r24, 0xEE	; 238
     eb6:	a8 2e       	mov	r10, r24
     eb8:	05 c0       	rjmp	.+10     	; 0xec4 <vfprintf+0x2c4>
     eba:	b8 2c       	mov	r11, r8
     ebc:	a3 2c       	mov	r10, r3
     ebe:	03 c0       	rjmp	.+6      	; 0xec6 <vfprintf+0x2c6>
     ec0:	b8 2c       	mov	r11, r8
     ec2:	01 c0       	rjmp	.+2      	; 0xec6 <vfprintf+0x2c6>
     ec4:	b9 2c       	mov	r11, r9
     ec6:	a4 fe       	sbrs	r10, 4
     ec8:	0f c0       	rjmp	.+30     	; 0xee8 <vfprintf+0x2e8>
     eca:	fe 01       	movw	r30, r28
     ecc:	e8 0d       	add	r30, r8
     ece:	f1 1d       	adc	r31, r1
     ed0:	80 81       	ld	r24, Z
     ed2:	80 33       	cpi	r24, 0x30	; 48
     ed4:	21 f4       	brne	.+8      	; 0xede <vfprintf+0x2de>
     ed6:	9a 2d       	mov	r25, r10
     ed8:	99 7e       	andi	r25, 0xE9	; 233
     eda:	a9 2e       	mov	r10, r25
     edc:	09 c0       	rjmp	.+18     	; 0xef0 <vfprintf+0x2f0>
     ede:	a2 fe       	sbrs	r10, 2
     ee0:	06 c0       	rjmp	.+12     	; 0xeee <vfprintf+0x2ee>
     ee2:	b3 94       	inc	r11
     ee4:	b3 94       	inc	r11
     ee6:	04 c0       	rjmp	.+8      	; 0xef0 <vfprintf+0x2f0>
     ee8:	8a 2d       	mov	r24, r10
     eea:	86 78       	andi	r24, 0x86	; 134
     eec:	09 f0       	breq	.+2      	; 0xef0 <vfprintf+0x2f0>
     eee:	b3 94       	inc	r11
     ef0:	a3 fc       	sbrc	r10, 3
     ef2:	10 c0       	rjmp	.+32     	; 0xf14 <vfprintf+0x314>
     ef4:	a0 fe       	sbrs	r10, 0
     ef6:	06 c0       	rjmp	.+12     	; 0xf04 <vfprintf+0x304>
     ef8:	b2 14       	cp	r11, r2
     efa:	80 f4       	brcc	.+32     	; 0xf1c <vfprintf+0x31c>
     efc:	28 0c       	add	r2, r8
     efe:	92 2c       	mov	r9, r2
     f00:	9b 18       	sub	r9, r11
     f02:	0d c0       	rjmp	.+26     	; 0xf1e <vfprintf+0x31e>
     f04:	b2 14       	cp	r11, r2
     f06:	58 f4       	brcc	.+22     	; 0xf1e <vfprintf+0x31e>
     f08:	b6 01       	movw	r22, r12
     f0a:	80 e2       	ldi	r24, 0x20	; 32
     f0c:	90 e0       	ldi	r25, 0x00	; 0
     f0e:	60 d0       	rcall	.+192    	; 0xfd0 <fputc>
     f10:	b3 94       	inc	r11
     f12:	f8 cf       	rjmp	.-16     	; 0xf04 <vfprintf+0x304>
     f14:	b2 14       	cp	r11, r2
     f16:	18 f4       	brcc	.+6      	; 0xf1e <vfprintf+0x31e>
     f18:	2b 18       	sub	r2, r11
     f1a:	02 c0       	rjmp	.+4      	; 0xf20 <vfprintf+0x320>
     f1c:	98 2c       	mov	r9, r8
     f1e:	21 2c       	mov	r2, r1
     f20:	a4 fe       	sbrs	r10, 4
     f22:	0f c0       	rjmp	.+30     	; 0xf42 <vfprintf+0x342>
     f24:	b6 01       	movw	r22, r12
     f26:	80 e3       	ldi	r24, 0x30	; 48
     f28:	90 e0       	ldi	r25, 0x00	; 0
     f2a:	52 d0       	rcall	.+164    	; 0xfd0 <fputc>
     f2c:	a2 fe       	sbrs	r10, 2
     f2e:	16 c0       	rjmp	.+44     	; 0xf5c <vfprintf+0x35c>
     f30:	a1 fc       	sbrc	r10, 1
     f32:	03 c0       	rjmp	.+6      	; 0xf3a <vfprintf+0x33a>
     f34:	88 e7       	ldi	r24, 0x78	; 120
     f36:	90 e0       	ldi	r25, 0x00	; 0
     f38:	02 c0       	rjmp	.+4      	; 0xf3e <vfprintf+0x33e>
     f3a:	88 e5       	ldi	r24, 0x58	; 88
     f3c:	90 e0       	ldi	r25, 0x00	; 0
     f3e:	b6 01       	movw	r22, r12
     f40:	0c c0       	rjmp	.+24     	; 0xf5a <vfprintf+0x35a>
     f42:	8a 2d       	mov	r24, r10
     f44:	86 78       	andi	r24, 0x86	; 134
     f46:	51 f0       	breq	.+20     	; 0xf5c <vfprintf+0x35c>
     f48:	a1 fe       	sbrs	r10, 1
     f4a:	02 c0       	rjmp	.+4      	; 0xf50 <vfprintf+0x350>
     f4c:	8b e2       	ldi	r24, 0x2B	; 43
     f4e:	01 c0       	rjmp	.+2      	; 0xf52 <vfprintf+0x352>
     f50:	80 e2       	ldi	r24, 0x20	; 32
     f52:	a7 fc       	sbrc	r10, 7
     f54:	8d e2       	ldi	r24, 0x2D	; 45
     f56:	b6 01       	movw	r22, r12
     f58:	90 e0       	ldi	r25, 0x00	; 0
     f5a:	3a d0       	rcall	.+116    	; 0xfd0 <fputc>
     f5c:	89 14       	cp	r8, r9
     f5e:	30 f4       	brcc	.+12     	; 0xf6c <vfprintf+0x36c>
     f60:	b6 01       	movw	r22, r12
     f62:	80 e3       	ldi	r24, 0x30	; 48
     f64:	90 e0       	ldi	r25, 0x00	; 0
     f66:	34 d0       	rcall	.+104    	; 0xfd0 <fputc>
     f68:	9a 94       	dec	r9
     f6a:	f8 cf       	rjmp	.-16     	; 0xf5c <vfprintf+0x35c>
     f6c:	8a 94       	dec	r8
     f6e:	f3 01       	movw	r30, r6
     f70:	e8 0d       	add	r30, r8
     f72:	f1 1d       	adc	r31, r1
     f74:	80 81       	ld	r24, Z
     f76:	b6 01       	movw	r22, r12
     f78:	90 e0       	ldi	r25, 0x00	; 0
     f7a:	2a d0       	rcall	.+84     	; 0xfd0 <fputc>
     f7c:	81 10       	cpse	r8, r1
     f7e:	f6 cf       	rjmp	.-20     	; 0xf6c <vfprintf+0x36c>
     f80:	22 20       	and	r2, r2
     f82:	09 f4       	brne	.+2      	; 0xf86 <vfprintf+0x386>
     f84:	4e ce       	rjmp	.-868    	; 0xc22 <vfprintf+0x22>
     f86:	b6 01       	movw	r22, r12
     f88:	80 e2       	ldi	r24, 0x20	; 32
     f8a:	90 e0       	ldi	r25, 0x00	; 0
     f8c:	21 d0       	rcall	.+66     	; 0xfd0 <fputc>
     f8e:	2a 94       	dec	r2
     f90:	f7 cf       	rjmp	.-18     	; 0xf80 <vfprintf+0x380>
     f92:	f6 01       	movw	r30, r12
     f94:	86 81       	ldd	r24, Z+6	; 0x06
     f96:	97 81       	ldd	r25, Z+7	; 0x07
     f98:	02 c0       	rjmp	.+4      	; 0xf9e <vfprintf+0x39e>
     f9a:	8f ef       	ldi	r24, 0xFF	; 255
     f9c:	9f ef       	ldi	r25, 0xFF	; 255
     f9e:	2b 96       	adiw	r28, 0x0b	; 11
     fa0:	e2 e1       	ldi	r30, 0x12	; 18
     fa2:	cc c0       	rjmp	.+408    	; 0x113c <__epilogue_restores__>

00000fa4 <strnlen_P>:
     fa4:	fc 01       	movw	r30, r24
     fa6:	05 90       	lpm	r0, Z+
     fa8:	61 50       	subi	r22, 0x01	; 1
     faa:	70 40       	sbci	r23, 0x00	; 0
     fac:	01 10       	cpse	r0, r1
     fae:	d8 f7       	brcc	.-10     	; 0xfa6 <strnlen_P+0x2>
     fb0:	80 95       	com	r24
     fb2:	90 95       	com	r25
     fb4:	8e 0f       	add	r24, r30
     fb6:	9f 1f       	adc	r25, r31
     fb8:	08 95       	ret

00000fba <strnlen>:
     fba:	fc 01       	movw	r30, r24
     fbc:	61 50       	subi	r22, 0x01	; 1
     fbe:	70 40       	sbci	r23, 0x00	; 0
     fc0:	01 90       	ld	r0, Z+
     fc2:	01 10       	cpse	r0, r1
     fc4:	d8 f7       	brcc	.-10     	; 0xfbc <strnlen+0x2>
     fc6:	80 95       	com	r24
     fc8:	90 95       	com	r25
     fca:	8e 0f       	add	r24, r30
     fcc:	9f 1f       	adc	r25, r31
     fce:	08 95       	ret

00000fd0 <fputc>:
     fd0:	0f 93       	push	r16
     fd2:	1f 93       	push	r17
     fd4:	cf 93       	push	r28
     fd6:	df 93       	push	r29
     fd8:	fb 01       	movw	r30, r22
     fda:	23 81       	ldd	r18, Z+3	; 0x03
     fdc:	21 fd       	sbrc	r18, 1
     fde:	03 c0       	rjmp	.+6      	; 0xfe6 <fputc+0x16>
     fe0:	8f ef       	ldi	r24, 0xFF	; 255
     fe2:	9f ef       	ldi	r25, 0xFF	; 255
     fe4:	2c c0       	rjmp	.+88     	; 0x103e <fputc+0x6e>
     fe6:	22 ff       	sbrs	r18, 2
     fe8:	16 c0       	rjmp	.+44     	; 0x1016 <fputc+0x46>
     fea:	46 81       	ldd	r20, Z+6	; 0x06
     fec:	57 81       	ldd	r21, Z+7	; 0x07
     fee:	24 81       	ldd	r18, Z+4	; 0x04
     ff0:	35 81       	ldd	r19, Z+5	; 0x05
     ff2:	42 17       	cp	r20, r18
     ff4:	53 07       	cpc	r21, r19
     ff6:	44 f4       	brge	.+16     	; 0x1008 <fputc+0x38>
     ff8:	a0 81       	ld	r26, Z
     ffa:	b1 81       	ldd	r27, Z+1	; 0x01
     ffc:	9d 01       	movw	r18, r26
     ffe:	2f 5f       	subi	r18, 0xFF	; 255
    1000:	3f 4f       	sbci	r19, 0xFF	; 255
    1002:	31 83       	std	Z+1, r19	; 0x01
    1004:	20 83       	st	Z, r18
    1006:	8c 93       	st	X, r24
    1008:	26 81       	ldd	r18, Z+6	; 0x06
    100a:	37 81       	ldd	r19, Z+7	; 0x07
    100c:	2f 5f       	subi	r18, 0xFF	; 255
    100e:	3f 4f       	sbci	r19, 0xFF	; 255
    1010:	37 83       	std	Z+7, r19	; 0x07
    1012:	26 83       	std	Z+6, r18	; 0x06
    1014:	14 c0       	rjmp	.+40     	; 0x103e <fputc+0x6e>
    1016:	8b 01       	movw	r16, r22
    1018:	ec 01       	movw	r28, r24
    101a:	fb 01       	movw	r30, r22
    101c:	00 84       	ldd	r0, Z+8	; 0x08
    101e:	f1 85       	ldd	r31, Z+9	; 0x09
    1020:	e0 2d       	mov	r30, r0
    1022:	09 95       	icall
    1024:	89 2b       	or	r24, r25
    1026:	e1 f6       	brne	.-72     	; 0xfe0 <fputc+0x10>
    1028:	d8 01       	movw	r26, r16
    102a:	16 96       	adiw	r26, 0x06	; 6
    102c:	8d 91       	ld	r24, X+
    102e:	9c 91       	ld	r25, X
    1030:	17 97       	sbiw	r26, 0x07	; 7
    1032:	01 96       	adiw	r24, 0x01	; 1
    1034:	17 96       	adiw	r26, 0x07	; 7
    1036:	9c 93       	st	X, r25
    1038:	8e 93       	st	-X, r24
    103a:	16 97       	sbiw	r26, 0x06	; 6
    103c:	ce 01       	movw	r24, r28
    103e:	df 91       	pop	r29
    1040:	cf 91       	pop	r28
    1042:	1f 91       	pop	r17
    1044:	0f 91       	pop	r16
    1046:	08 95       	ret

00001048 <__ultoa_invert>:
    1048:	fa 01       	movw	r30, r20
    104a:	aa 27       	eor	r26, r26
    104c:	28 30       	cpi	r18, 0x08	; 8
    104e:	51 f1       	breq	.+84     	; 0x10a4 <__ultoa_invert+0x5c>
    1050:	20 31       	cpi	r18, 0x10	; 16
    1052:	81 f1       	breq	.+96     	; 0x10b4 <__ultoa_invert+0x6c>
    1054:	e8 94       	clt
    1056:	6f 93       	push	r22
    1058:	6e 7f       	andi	r22, 0xFE	; 254
    105a:	6e 5f       	subi	r22, 0xFE	; 254
    105c:	7f 4f       	sbci	r23, 0xFF	; 255
    105e:	8f 4f       	sbci	r24, 0xFF	; 255
    1060:	9f 4f       	sbci	r25, 0xFF	; 255
    1062:	af 4f       	sbci	r26, 0xFF	; 255
    1064:	b1 e0       	ldi	r27, 0x01	; 1
    1066:	3e d0       	rcall	.+124    	; 0x10e4 <__ultoa_invert+0x9c>
    1068:	b4 e0       	ldi	r27, 0x04	; 4
    106a:	3c d0       	rcall	.+120    	; 0x10e4 <__ultoa_invert+0x9c>
    106c:	67 0f       	add	r22, r23
    106e:	78 1f       	adc	r23, r24
    1070:	89 1f       	adc	r24, r25
    1072:	9a 1f       	adc	r25, r26
    1074:	a1 1d       	adc	r26, r1
    1076:	68 0f       	add	r22, r24
    1078:	79 1f       	adc	r23, r25
    107a:	8a 1f       	adc	r24, r26
    107c:	91 1d       	adc	r25, r1
    107e:	a1 1d       	adc	r26, r1
    1080:	6a 0f       	add	r22, r26
    1082:	71 1d       	adc	r23, r1
    1084:	81 1d       	adc	r24, r1
    1086:	91 1d       	adc	r25, r1
    1088:	a1 1d       	adc	r26, r1
    108a:	20 d0       	rcall	.+64     	; 0x10cc <__ultoa_invert+0x84>
    108c:	09 f4       	brne	.+2      	; 0x1090 <__ultoa_invert+0x48>
    108e:	68 94       	set
    1090:	3f 91       	pop	r19
    1092:	2a e0       	ldi	r18, 0x0A	; 10
    1094:	26 9f       	mul	r18, r22
    1096:	11 24       	eor	r1, r1
    1098:	30 19       	sub	r19, r0
    109a:	30 5d       	subi	r19, 0xD0	; 208
    109c:	31 93       	st	Z+, r19
    109e:	de f6       	brtc	.-74     	; 0x1056 <__ultoa_invert+0xe>
    10a0:	cf 01       	movw	r24, r30
    10a2:	08 95       	ret
    10a4:	46 2f       	mov	r20, r22
    10a6:	47 70       	andi	r20, 0x07	; 7
    10a8:	40 5d       	subi	r20, 0xD0	; 208
    10aa:	41 93       	st	Z+, r20
    10ac:	b3 e0       	ldi	r27, 0x03	; 3
    10ae:	0f d0       	rcall	.+30     	; 0x10ce <__ultoa_invert+0x86>
    10b0:	c9 f7       	brne	.-14     	; 0x10a4 <__ultoa_invert+0x5c>
    10b2:	f6 cf       	rjmp	.-20     	; 0x10a0 <__ultoa_invert+0x58>
    10b4:	46 2f       	mov	r20, r22
    10b6:	4f 70       	andi	r20, 0x0F	; 15
    10b8:	40 5d       	subi	r20, 0xD0	; 208
    10ba:	4a 33       	cpi	r20, 0x3A	; 58
    10bc:	18 f0       	brcs	.+6      	; 0x10c4 <__ultoa_invert+0x7c>
    10be:	49 5d       	subi	r20, 0xD9	; 217
    10c0:	31 fd       	sbrc	r19, 1
    10c2:	40 52       	subi	r20, 0x20	; 32
    10c4:	41 93       	st	Z+, r20
    10c6:	02 d0       	rcall	.+4      	; 0x10cc <__ultoa_invert+0x84>
    10c8:	a9 f7       	brne	.-22     	; 0x10b4 <__ultoa_invert+0x6c>
    10ca:	ea cf       	rjmp	.-44     	; 0x10a0 <__ultoa_invert+0x58>
    10cc:	b4 e0       	ldi	r27, 0x04	; 4
    10ce:	a6 95       	lsr	r26
    10d0:	97 95       	ror	r25
    10d2:	87 95       	ror	r24
    10d4:	77 95       	ror	r23
    10d6:	67 95       	ror	r22
    10d8:	ba 95       	dec	r27
    10da:	c9 f7       	brne	.-14     	; 0x10ce <__ultoa_invert+0x86>
    10dc:	00 97       	sbiw	r24, 0x00	; 0
    10de:	61 05       	cpc	r22, r1
    10e0:	71 05       	cpc	r23, r1
    10e2:	08 95       	ret
    10e4:	9b 01       	movw	r18, r22
    10e6:	ac 01       	movw	r20, r24
    10e8:	0a 2e       	mov	r0, r26
    10ea:	06 94       	lsr	r0
    10ec:	57 95       	ror	r21
    10ee:	47 95       	ror	r20
    10f0:	37 95       	ror	r19
    10f2:	27 95       	ror	r18
    10f4:	ba 95       	dec	r27
    10f6:	c9 f7       	brne	.-14     	; 0x10ea <__ultoa_invert+0xa2>
    10f8:	62 0f       	add	r22, r18
    10fa:	73 1f       	adc	r23, r19
    10fc:	84 1f       	adc	r24, r20
    10fe:	95 1f       	adc	r25, r21
    1100:	a0 1d       	adc	r26, r0
    1102:	08 95       	ret

00001104 <__prologue_saves__>:
    1104:	2f 92       	push	r2
    1106:	3f 92       	push	r3
    1108:	4f 92       	push	r4
    110a:	5f 92       	push	r5
    110c:	6f 92       	push	r6
    110e:	7f 92       	push	r7
    1110:	8f 92       	push	r8
    1112:	9f 92       	push	r9
    1114:	af 92       	push	r10
    1116:	bf 92       	push	r11
    1118:	cf 92       	push	r12
    111a:	df 92       	push	r13
    111c:	ef 92       	push	r14
    111e:	ff 92       	push	r15
    1120:	0f 93       	push	r16
    1122:	1f 93       	push	r17
    1124:	cf 93       	push	r28
    1126:	df 93       	push	r29
    1128:	cd b7       	in	r28, 0x3d	; 61
    112a:	de b7       	in	r29, 0x3e	; 62
    112c:	ca 1b       	sub	r28, r26
    112e:	db 0b       	sbc	r29, r27
    1130:	0f b6       	in	r0, 0x3f	; 63
    1132:	f8 94       	cli
    1134:	de bf       	out	0x3e, r29	; 62
    1136:	0f be       	out	0x3f, r0	; 63
    1138:	cd bf       	out	0x3d, r28	; 61
    113a:	09 94       	ijmp

0000113c <__epilogue_restores__>:
    113c:	2a 88       	ldd	r2, Y+18	; 0x12
    113e:	39 88       	ldd	r3, Y+17	; 0x11
    1140:	48 88       	ldd	r4, Y+16	; 0x10
    1142:	5f 84       	ldd	r5, Y+15	; 0x0f
    1144:	6e 84       	ldd	r6, Y+14	; 0x0e
    1146:	7d 84       	ldd	r7, Y+13	; 0x0d
    1148:	8c 84       	ldd	r8, Y+12	; 0x0c
    114a:	9b 84       	ldd	r9, Y+11	; 0x0b
    114c:	aa 84       	ldd	r10, Y+10	; 0x0a
    114e:	b9 84       	ldd	r11, Y+9	; 0x09
    1150:	c8 84       	ldd	r12, Y+8	; 0x08
    1152:	df 80       	ldd	r13, Y+7	; 0x07
    1154:	ee 80       	ldd	r14, Y+6	; 0x06
    1156:	fd 80       	ldd	r15, Y+5	; 0x05
    1158:	0c 81       	ldd	r16, Y+4	; 0x04
    115a:	1b 81       	ldd	r17, Y+3	; 0x03
    115c:	aa 81       	ldd	r26, Y+2	; 0x02
    115e:	b9 81       	ldd	r27, Y+1	; 0x01
    1160:	ce 0f       	add	r28, r30
    1162:	d1 1d       	adc	r29, r1
    1164:	0f b6       	in	r0, 0x3f	; 63
    1166:	f8 94       	cli
    1168:	de bf       	out	0x3e, r29	; 62
    116a:	0f be       	out	0x3f, r0	; 63
    116c:	cd bf       	out	0x3d, r28	; 61
    116e:	ed 01       	movw	r28, r26
    1170:	08 95       	ret

00001172 <_exit>:
    1172:	f8 94       	cli

00001174 <__stop_program>:
    1174:	ff cf       	rjmp	.-2      	; 0x1174 <__stop_program>
